
test_hpcounters.riscv:     file format elf64-littleriscv


Disassembly of section .text:

0000000000010120 <_ZSt9terminatev>:
   10120:	1141                	addi	sp,sp,-16
   10122:	e406                	sd	ra,8(sp)
   10124:	3a8010ef          	jal	114cc <_ZSt13get_terminatev>
   10128:	380010ef          	jal	114a8 <_ZN10__cxxabiv111__terminateEPFvvE>

000000000001012c <_ZSt10unexpectedv>:
   1012c:	1141                	addi	sp,sp,-16
   1012e:	e406                	sd	ra,8(sp)
   10130:	3c4010ef          	jal	114f4 <_ZSt14get_unexpectedv>
   10134:	3a4010ef          	jal	114d8 <_ZN10__cxxabiv112__unexpectedEPFvvE>

0000000000010138 <_ZNSt7__cxx1112basic_stringIcSt11char_traitsIcESaIcEE15_M_replace_coldEPcmPKcmm>:
   10138:	7139                	addi	sp,sp,-64
   1013a:	f822                	sd	s0,48(sp)
   1013c:	f426                	sd	s1,40(sp)
   1013e:	f04a                	sd	s2,32(sp)
   10140:	ec4e                	sd	s3,24(sp)
   10142:	843a                	mv	s0,a4
   10144:	fc06                	sd	ra,56(sp)
   10146:	177d                	addi	a4,a4,-1
   10148:	84ae                	mv	s1,a1
   1014a:	8932                	mv	s2,a2
   1014c:	89b6                	mv	s3,a3
   1014e:	00c77963          	bgeu	a4,a2,10160 <_ZNSt7__cxx1112basic_stringIcSt11char_traitsIcESaIcEE15_M_replace_coldEPcmPKcmm+0x28>
   10152:	8622                	mv	a2,s0
   10154:	85b6                	mv	a1,a3
   10156:	8526                	mv	a0,s1
   10158:	e43e                	sd	a5,8(sp)
   1015a:	6f0010ef          	jal	1184a <_ZNSt7__cxx1112basic_stringIcSt11char_traitsIcESaIcEE7_S_moveEPcPKcm>
   1015e:	67a2                	ld	a5,8(sp)
   10160:	cb91                	beqz	a5,10174 <_ZNSt7__cxx1112basic_stringIcSt11char_traitsIcESaIcEE15_M_replace_coldEPcmPKcmm+0x3c>
   10162:	07240963          	beq	s0,s2,101d4 <_ZNSt7__cxx1112basic_stringIcSt11char_traitsIcESaIcEE15_M_replace_coldEPcmPKcmm+0x9c>
   10166:	863e                	mv	a2,a5
   10168:	012485b3          	add	a1,s1,s2
   1016c:	00848533          	add	a0,s1,s0
   10170:	6da010ef          	jal	1184a <_ZNSt7__cxx1112basic_stringIcSt11char_traitsIcESaIcEE7_S_moveEPcPKcm>
   10174:	06897063          	bgeu	s2,s0,101d4 <_ZNSt7__cxx1112basic_stringIcSt11char_traitsIcESaIcEE15_M_replace_coldEPcmPKcmm+0x9c>
   10178:	012487b3          	add	a5,s1,s2
   1017c:	00898733          	add	a4,s3,s0
   10180:	00e7ed63          	bltu	a5,a4,1019a <_ZNSt7__cxx1112basic_stringIcSt11char_traitsIcESaIcEE15_M_replace_coldEPcmPKcmm+0x62>
   10184:	8622                	mv	a2,s0
   10186:	7442                	ld	s0,48(sp)
   10188:	70e2                	ld	ra,56(sp)
   1018a:	7902                	ld	s2,32(sp)
   1018c:	85ce                	mv	a1,s3
   1018e:	8526                	mv	a0,s1
   10190:	69e2                	ld	s3,24(sp)
   10192:	74a2                	ld	s1,40(sp)
   10194:	6121                	addi	sp,sp,64
   10196:	6b40106f          	j	1184a <_ZNSt7__cxx1112basic_stringIcSt11char_traitsIcESaIcEE7_S_moveEPcPKcm>
   1019a:	00f9ef63          	bltu	s3,a5,101b8 <_ZNSt7__cxx1112basic_stringIcSt11char_traitsIcESaIcEE15_M_replace_coldEPcmPKcmm+0x80>
   1019e:	412405b3          	sub	a1,s0,s2
   101a2:	8622                	mv	a2,s0
   101a4:	95ce                	add	a1,a1,s3
   101a6:	8526                	mv	a0,s1
   101a8:	7442                	ld	s0,48(sp)
   101aa:	70e2                	ld	ra,56(sp)
   101ac:	74a2                	ld	s1,40(sp)
   101ae:	7902                	ld	s2,32(sp)
   101b0:	69e2                	ld	s3,24(sp)
   101b2:	6121                	addi	sp,sp,64
   101b4:	6840106f          	j	11838 <_ZNSt7__cxx1112basic_stringIcSt11char_traitsIcESaIcEE7_S_copyEPcPKcm>
   101b8:	41378933          	sub	s2,a5,s3
   101bc:	864a                	mv	a2,s2
   101be:	85ce                	mv	a1,s3
   101c0:	8526                	mv	a0,s1
   101c2:	688010ef          	jal	1184a <_ZNSt7__cxx1112basic_stringIcSt11char_traitsIcESaIcEE7_S_moveEPcPKcm>
   101c6:	41240633          	sub	a2,s0,s2
   101ca:	008485b3          	add	a1,s1,s0
   101ce:	01248533          	add	a0,s1,s2
   101d2:	bfd9                	j	101a8 <_ZNSt7__cxx1112basic_stringIcSt11char_traitsIcESaIcEE15_M_replace_coldEPcmPKcmm+0x70>
   101d4:	70e2                	ld	ra,56(sp)
   101d6:	7442                	ld	s0,48(sp)
   101d8:	74a2                	ld	s1,40(sp)
   101da:	7902                	ld	s2,32(sp)
   101dc:	69e2                	ld	s3,24(sp)
   101de:	6121                	addi	sp,sp,64
   101e0:	8082                	ret

00000000000101e2 <_ZN9__gnu_cxx9__freeresEv>:
   101e2:	1141                	addi	sp,sp,-16
   101e4:	e022                	sd	s0,0(sp)
   101e6:	0003a437          	lui	s0,0x3a
   101ea:	44840413          	addi	s0,s0,1096 # 3a448 <_ZN12_GLOBAL__N_1L14emergency_poolE>
   101ee:	6808                	ld	a0,16(s0)
   101f0:	e406                	sd	ra,8(sp)
   101f2:	c509                	beqz	a0,101fc <_ZN9__gnu_cxx9__freeresEv+0x1a>
   101f4:	3240e0ef          	jal	1e518 <free>
   101f8:	00043823          	sd	zero,16(s0)
   101fc:	60a2                	ld	ra,8(sp)
   101fe:	6402                	ld	s0,0(sp)
   10200:	0141                	addi	sp,sp,16
   10202:	8082                	ret

0000000000010204 <__cxa_call_terminate>:
   10204:	1141                	addi	sp,sp,-16
   10206:	e406                	sd	ra,8(sp)
   10208:	e022                	sd	s0,0(sp)
   1020a:	c905                	beqz	a0,1023a <__cxa_call_terminate+0x36>
   1020c:	842a                	mv	s0,a0
   1020e:	5b6070ef          	jal	177c4 <__cxa_begin_catch>
   10212:	b8b1b7b7          	lui	a5,0xb8b1b
   10216:	abd78793          	addi	a5,a5,-1347 # ffffffffb8b1aabd <__BSS_END__+0xffffffffb8ae0025>
   1021a:	07b2                	slli	a5,a5,0xc
   1021c:	bcd78793          	addi	a5,a5,-1075
   10220:	6018                	ld	a4,0(s0)
   10222:	07b2                	slli	a5,a5,0xc
   10224:	4d578793          	addi	a5,a5,1237
   10228:	07a2                	slli	a5,a5,0x8
   1022a:	97ba                	add	a5,a5,a4
   1022c:	4705                	li	a4,1
   1022e:	00f76663          	bltu	a4,a5,1023a <__cxa_call_terminate+0x36>
   10232:	fc843503          	ld	a0,-56(s0)
   10236:	272010ef          	jal	114a8 <_ZN10__cxxabiv111__terminateEPFvvE>
   1023a:	ee7ff0ef          	jal	10120 <_ZSt9terminatev>

000000000001023e <_ZSt21__throw_bad_exceptionv>:
   1023e:	1141                	addi	sp,sp,-16
   10240:	4521                	li	a0,8
   10242:	e406                	sd	ra,8(sp)
   10244:	460070ef          	jal	176a4 <__cxa_allocate_exception>
   10248:	0002d7b7          	lui	a5,0x2d
   1024c:	26078793          	addi	a5,a5,608 # 2d260 <_ZTVSt13bad_exception+0x10>
   10250:	6661                	lui	a2,0x18
   10252:	0002d5b7          	lui	a1,0x2d
   10256:	e11c                	sd	a5,0(a0)
   10258:	8c260613          	addi	a2,a2,-1854 # 178c2 <_ZNSt13bad_exceptionD1Ev>
   1025c:	1a858593          	addi	a1,a1,424 # 2d1a8 <_ZTISt13bad_exception>
   10260:	330010ef          	jal	11590 <__cxa_throw>

0000000000010264 <_ZSt17__throw_bad_allocv>:
   10264:	1141                	addi	sp,sp,-16
   10266:	4521                	li	a0,8
   10268:	e406                	sd	ra,8(sp)
   1026a:	43a070ef          	jal	176a4 <__cxa_allocate_exception>
   1026e:	0002d7b7          	lui	a5,0x2d
   10272:	3f878793          	addi	a5,a5,1016 # 2d3f8 <_ZTVSt9bad_alloc+0x10>
   10276:	6661                	lui	a2,0x18
   10278:	0002d5b7          	lui	a1,0x2d
   1027c:	e11c                	sd	a5,0(a0)
   1027e:	c5260613          	addi	a2,a2,-942 # 17c52 <_ZNSt9bad_allocD1Ev>
   10282:	3d058593          	addi	a1,a1,976 # 2d3d0 <_ZTISt9bad_alloc>
   10286:	30a010ef          	jal	11590 <__cxa_throw>

000000000001028a <_ZSt28__throw_bad_array_new_lengthv>:
   1028a:	1141                	addi	sp,sp,-16
   1028c:	4521                	li	a0,8
   1028e:	e406                	sd	ra,8(sp)
   10290:	414070ef          	jal	176a4 <__cxa_allocate_exception>
   10294:	0002d7b7          	lui	a5,0x2d
   10298:	45878793          	addi	a5,a5,1112 # 2d458 <_ZTVSt20bad_array_new_length+0x10>
   1029c:	6661                	lui	a2,0x18
   1029e:	0002d5b7          	lui	a1,0x2d
   102a2:	e11c                	sd	a5,0(a0)
   102a4:	c7e60613          	addi	a2,a2,-898 # 17c7e <_ZNSt20bad_array_new_lengthD1Ev>
   102a8:	43058593          	addi	a1,a1,1072 # 2d430 <_ZTISt20bad_array_new_length>
   102ac:	2e4010ef          	jal	11590 <__cxa_throw>

00000000000102b0 <_ZSt16__throw_bad_castv>:
   102b0:	1141                	addi	sp,sp,-16
   102b2:	4521                	li	a0,8
   102b4:	e406                	sd	ra,8(sp)
   102b6:	3ee070ef          	jal	176a4 <__cxa_allocate_exception>
   102ba:	0002d7b7          	lui	a5,0x2d
   102be:	4a878793          	addi	a5,a5,1192 # 2d4a8 <_ZTVSt8bad_cast+0x10>
   102c2:	6661                	lui	a2,0x18
   102c4:	0002d5b7          	lui	a1,0x2d
   102c8:	e11c                	sd	a5,0(a0)
   102ca:	caa60613          	addi	a2,a2,-854 # 17caa <_ZNSt8bad_castD1Ev>
   102ce:	48058593          	addi	a1,a1,1152 # 2d480 <_ZTISt8bad_cast>
   102d2:	2be010ef          	jal	11590 <__cxa_throw>

00000000000102d6 <_ZSt18__throw_bad_typeidv>:
   102d6:	1141                	addi	sp,sp,-16
   102d8:	4521                	li	a0,8
   102da:	e406                	sd	ra,8(sp)
   102dc:	3c8070ef          	jal	176a4 <__cxa_allocate_exception>
   102e0:	0002d7b7          	lui	a5,0x2d
   102e4:	4f878793          	addi	a5,a5,1272 # 2d4f8 <_ZTVSt10bad_typeid+0x10>
   102e8:	6661                	lui	a2,0x18
   102ea:	0002d5b7          	lui	a1,0x2d
   102ee:	e11c                	sd	a5,0(a0)
   102f0:	cd660613          	addi	a2,a2,-810 # 17cd6 <_ZNSt10bad_typeidD1Ev>
   102f4:	4d058593          	addi	a1,a1,1232 # 2d4d0 <_ZTISt10bad_typeid>
   102f8:	298010ef          	jal	11590 <__cxa_throw>

00000000000102fc <_ZSt19__throw_logic_errorPKc>:
   102fc:	7179                	addi	sp,sp,-48
   102fe:	e42a                	sd	a0,8(sp)
   10300:	4541                	li	a0,16
   10302:	f022                	sd	s0,32(sp)
   10304:	f406                	sd	ra,40(sp)
   10306:	ec26                	sd	s1,24(sp)
   10308:	39c070ef          	jal	176a4 <__cxa_allocate_exception>
   1030c:	65a2                	ld	a1,8(sp)
   1030e:	842a                	mv	s0,a0
   10310:	737070ef          	jal	18246 <_ZNSt11logic_errorC1EPKc>
   10314:	6661                	lui	a2,0x18
   10316:	0002d5b7          	lui	a1,0x2d
   1031a:	f0c60613          	addi	a2,a2,-244 # 17f0c <_ZNSt11logic_errorD1Ev>
   1031e:	5b858593          	addi	a1,a1,1464 # 2d5b8 <_ZTISt11logic_error>
   10322:	8522                	mv	a0,s0
   10324:	26c010ef          	jal	11590 <__cxa_throw>
   10328:	84aa                	mv	s1,a0
   1032a:	8522                	mv	a0,s0
   1032c:	3b2070ef          	jal	176de <__cxa_free_exception>
   10330:	8526                	mv	a0,s1
   10332:	5130c0ef          	jal	1d044 <_Unwind_Resume>

0000000000010336 <_ZSt20__throw_domain_errorPKc>:
   10336:	7179                	addi	sp,sp,-48
   10338:	e42a                	sd	a0,8(sp)
   1033a:	4541                	li	a0,16
   1033c:	f022                	sd	s0,32(sp)
   1033e:	f406                	sd	ra,40(sp)
   10340:	ec26                	sd	s1,24(sp)
   10342:	362070ef          	jal	176a4 <__cxa_allocate_exception>
   10346:	65a2                	ld	a1,8(sp)
   10348:	842a                	mv	s0,a0
   1034a:	733070ef          	jal	1827c <_ZNSt12domain_errorC1EPKc>
   1034e:	6661                	lui	a2,0x18
   10350:	0002d5b7          	lui	a1,0x2d
   10354:	f4860613          	addi	a2,a2,-184 # 17f48 <_ZNSt12domain_errorD1Ev>
   10358:	5e858593          	addi	a1,a1,1512 # 2d5e8 <_ZTISt12domain_error>
   1035c:	8522                	mv	a0,s0
   1035e:	232010ef          	jal	11590 <__cxa_throw>
   10362:	84aa                	mv	s1,a0
   10364:	8522                	mv	a0,s0
   10366:	378070ef          	jal	176de <__cxa_free_exception>
   1036a:	8526                	mv	a0,s1
   1036c:	4d90c0ef          	jal	1d044 <_Unwind_Resume>

0000000000010370 <_ZSt24__throw_invalid_argumentPKc>:
   10370:	7179                	addi	sp,sp,-48
   10372:	e42a                	sd	a0,8(sp)
   10374:	4541                	li	a0,16
   10376:	f022                	sd	s0,32(sp)
   10378:	f406                	sd	ra,40(sp)
   1037a:	ec26                	sd	s1,24(sp)
   1037c:	328070ef          	jal	176a4 <__cxa_allocate_exception>
   10380:	65a2                	ld	a1,8(sp)
   10382:	842a                	mv	s0,a0
   10384:	717070ef          	jal	1829a <_ZNSt16invalid_argumentC1EPKc>
   10388:	6661                	lui	a2,0x18
   1038a:	0002d5b7          	lui	a1,0x2d
   1038e:	f6a60613          	addi	a2,a2,-150 # 17f6a <_ZNSt16invalid_argumentD1Ev>
   10392:	61858593          	addi	a1,a1,1560 # 2d618 <_ZTISt16invalid_argument>
   10396:	8522                	mv	a0,s0
   10398:	1f8010ef          	jal	11590 <__cxa_throw>
   1039c:	84aa                	mv	s1,a0
   1039e:	8522                	mv	a0,s0
   103a0:	33e070ef          	jal	176de <__cxa_free_exception>
   103a4:	8526                	mv	a0,s1
   103a6:	49f0c0ef          	jal	1d044 <_Unwind_Resume>

00000000000103aa <_ZSt20__throw_length_errorPKc>:
   103aa:	7179                	addi	sp,sp,-48
   103ac:	e42a                	sd	a0,8(sp)
   103ae:	4541                	li	a0,16
   103b0:	f022                	sd	s0,32(sp)
   103b2:	f406                	sd	ra,40(sp)
   103b4:	ec26                	sd	s1,24(sp)
   103b6:	2ee070ef          	jal	176a4 <__cxa_allocate_exception>
   103ba:	65a2                	ld	a1,8(sp)
   103bc:	842a                	mv	s0,a0
   103be:	6fb070ef          	jal	182b8 <_ZNSt12length_errorC1EPKc>
   103c2:	6661                	lui	a2,0x18
   103c4:	0002d5b7          	lui	a1,0x2d
   103c8:	f8c60613          	addi	a2,a2,-116 # 17f8c <_ZNSt12length_errorD1Ev>
   103cc:	64858593          	addi	a1,a1,1608 # 2d648 <_ZTISt12length_error>
   103d0:	8522                	mv	a0,s0
   103d2:	1be010ef          	jal	11590 <__cxa_throw>
   103d6:	84aa                	mv	s1,a0
   103d8:	8522                	mv	a0,s0
   103da:	304070ef          	jal	176de <__cxa_free_exception>
   103de:	8526                	mv	a0,s1
   103e0:	4650c0ef          	jal	1d044 <_Unwind_Resume>

00000000000103e4 <_ZSt20__throw_out_of_rangePKc>:
   103e4:	7179                	addi	sp,sp,-48
   103e6:	e42a                	sd	a0,8(sp)
   103e8:	4541                	li	a0,16
   103ea:	f022                	sd	s0,32(sp)
   103ec:	f406                	sd	ra,40(sp)
   103ee:	ec26                	sd	s1,24(sp)
   103f0:	2b4070ef          	jal	176a4 <__cxa_allocate_exception>
   103f4:	65a2                	ld	a1,8(sp)
   103f6:	842a                	mv	s0,a0
   103f8:	6df070ef          	jal	182d6 <_ZNSt12out_of_rangeC1EPKc>
   103fc:	6661                	lui	a2,0x18
   103fe:	0002d5b7          	lui	a1,0x2d
   10402:	fae60613          	addi	a2,a2,-82 # 17fae <_ZNSt12out_of_rangeD1Ev>
   10406:	67858593          	addi	a1,a1,1656 # 2d678 <_ZTISt12out_of_range>
   1040a:	8522                	mv	a0,s0
   1040c:	184010ef          	jal	11590 <__cxa_throw>
   10410:	84aa                	mv	s1,a0
   10412:	8522                	mv	a0,s0
   10414:	2ca070ef          	jal	176de <__cxa_free_exception>
   10418:	8526                	mv	a0,s1
   1041a:	42b0c0ef          	jal	1d044 <_Unwind_Resume>

000000000001041e <_ZSt24__throw_out_of_range_fmtPKcz>:
   1041e:	7159                	addi	sp,sp,-112
   10420:	f406                	sd	ra,40(sp)
   10422:	f022                	sd	s0,32(sp)
   10424:	ec26                	sd	s1,24(sp)
   10426:	1800                	addi	s0,sp,48
   10428:	e84a                	sd	s2,16(sp)
   1042a:	84aa                	mv	s1,a0
   1042c:	f018                	sd	a4,32(s0)
   1042e:	03043823          	sd	a6,48(s0)
   10432:	03143c23          	sd	a7,56(s0)
   10436:	e40c                	sd	a1,8(s0)
   10438:	e810                	sd	a2,16(s0)
   1043a:	ec14                	sd	a3,24(s0)
   1043c:	f41c                	sd	a5,40(s0)
   1043e:	4f2100ef          	jal	20930 <strlen>
   10442:	20f50793          	addi	a5,a0,527
   10446:	9bc1                	andi	a5,a5,-16
   10448:	40f10133          	sub	sp,sp,a5
   1044c:	20050593          	addi	a1,a0,512
   10450:	00840693          	addi	a3,s0,8
   10454:	8626                	mv	a2,s1
   10456:	850a                	mv	a0,sp
   10458:	fcd43c23          	sd	a3,-40(s0)
   1045c:	72a070ef          	jal	17b86 <_ZN9__gnu_cxx15__snprintf_liteEPcmPKcPv>
   10460:	4541                	li	a0,16
   10462:	242070ef          	jal	176a4 <__cxa_allocate_exception>
   10466:	858a                	mv	a1,sp
   10468:	84aa                	mv	s1,a0
   1046a:	66d070ef          	jal	182d6 <_ZNSt12out_of_rangeC1EPKc>
   1046e:	6661                	lui	a2,0x18
   10470:	0002d5b7          	lui	a1,0x2d
   10474:	fae60613          	addi	a2,a2,-82 # 17fae <_ZNSt12out_of_rangeD1Ev>
   10478:	67858593          	addi	a1,a1,1656 # 2d678 <_ZTISt12out_of_range>
   1047c:	8526                	mv	a0,s1
   1047e:	112010ef          	jal	11590 <__cxa_throw>
   10482:	892a                	mv	s2,a0
   10484:	8526                	mv	a0,s1
   10486:	258070ef          	jal	176de <__cxa_free_exception>
   1048a:	854a                	mv	a0,s2
   1048c:	3b90c0ef          	jal	1d044 <_Unwind_Resume>

0000000000010490 <_ZSt21__throw_runtime_errorPKc>:
   10490:	7179                	addi	sp,sp,-48
   10492:	e42a                	sd	a0,8(sp)
   10494:	4541                	li	a0,16
   10496:	f022                	sd	s0,32(sp)
   10498:	f406                	sd	ra,40(sp)
   1049a:	ec26                	sd	s1,24(sp)
   1049c:	208070ef          	jal	176a4 <__cxa_allocate_exception>
   104a0:	65a2                	ld	a1,8(sp)
   104a2:	842a                	mv	s0,a0
   104a4:	651070ef          	jal	182f4 <_ZNSt13runtime_errorC1EPKc>
   104a8:	6661                	lui	a2,0x18
   104aa:	0002d5b7          	lui	a1,0x2d
   104ae:	e6a60613          	addi	a2,a2,-406 # 17e6a <_ZNSt13runtime_errorD1Ev>
   104b2:	6a858593          	addi	a1,a1,1704 # 2d6a8 <_ZTISt13runtime_error>
   104b6:	8522                	mv	a0,s0
   104b8:	0d8010ef          	jal	11590 <__cxa_throw>
   104bc:	84aa                	mv	s1,a0
   104be:	8522                	mv	a0,s0
   104c0:	21e070ef          	jal	176de <__cxa_free_exception>
   104c4:	8526                	mv	a0,s1
   104c6:	37f0c0ef          	jal	1d044 <_Unwind_Resume>

00000000000104ca <_ZSt19__throw_range_errorPKc>:
   104ca:	7179                	addi	sp,sp,-48
   104cc:	e42a                	sd	a0,8(sp)
   104ce:	4541                	li	a0,16
   104d0:	f022                	sd	s0,32(sp)
   104d2:	f406                	sd	ra,40(sp)
   104d4:	ec26                	sd	s1,24(sp)
   104d6:	1ce070ef          	jal	176a4 <__cxa_allocate_exception>
   104da:	65a2                	ld	a1,8(sp)
   104dc:	842a                	mv	s0,a0
   104de:	64d070ef          	jal	1832a <_ZNSt11range_errorC1EPKc>
   104e2:	6661                	lui	a2,0x18
   104e4:	0002d5b7          	lui	a1,0x2d
   104e8:	ea660613          	addi	a2,a2,-346 # 17ea6 <_ZNSt11range_errorD1Ev>
   104ec:	6d058593          	addi	a1,a1,1744 # 2d6d0 <_ZTISt11range_error>
   104f0:	8522                	mv	a0,s0
   104f2:	09e010ef          	jal	11590 <__cxa_throw>
   104f6:	84aa                	mv	s1,a0
   104f8:	8522                	mv	a0,s0
   104fa:	1e4070ef          	jal	176de <__cxa_free_exception>
   104fe:	8526                	mv	a0,s1
   10500:	3450c0ef          	jal	1d044 <_Unwind_Resume>

0000000000010504 <_ZSt22__throw_overflow_errorPKc>:
   10504:	7179                	addi	sp,sp,-48
   10506:	e42a                	sd	a0,8(sp)
   10508:	4541                	li	a0,16
   1050a:	f022                	sd	s0,32(sp)
   1050c:	f406                	sd	ra,40(sp)
   1050e:	ec26                	sd	s1,24(sp)
   10510:	194070ef          	jal	176a4 <__cxa_allocate_exception>
   10514:	65a2                	ld	a1,8(sp)
   10516:	842a                	mv	s0,a0
   10518:	631070ef          	jal	18348 <_ZNSt14overflow_errorC1EPKc>
   1051c:	6661                	lui	a2,0x18
   1051e:	0002d5b7          	lui	a1,0x2d
   10522:	ec860613          	addi	a2,a2,-312 # 17ec8 <_ZNSt14overflow_errorD1Ev>
   10526:	70058593          	addi	a1,a1,1792 # 2d700 <_ZTISt14overflow_error>
   1052a:	8522                	mv	a0,s0
   1052c:	064010ef          	jal	11590 <__cxa_throw>
   10530:	84aa                	mv	s1,a0
   10532:	8522                	mv	a0,s0
   10534:	1aa070ef          	jal	176de <__cxa_free_exception>
   10538:	8526                	mv	a0,s1
   1053a:	30b0c0ef          	jal	1d044 <_Unwind_Resume>

000000000001053e <_ZSt23__throw_underflow_errorPKc>:
   1053e:	7179                	addi	sp,sp,-48
   10540:	e42a                	sd	a0,8(sp)
   10542:	4541                	li	a0,16
   10544:	f022                	sd	s0,32(sp)
   10546:	f406                	sd	ra,40(sp)
   10548:	ec26                	sd	s1,24(sp)
   1054a:	15a070ef          	jal	176a4 <__cxa_allocate_exception>
   1054e:	65a2                	ld	a1,8(sp)
   10550:	842a                	mv	s0,a0
   10552:	615070ef          	jal	18366 <_ZNSt15underflow_errorC1EPKc>
   10556:	6661                	lui	a2,0x18
   10558:	0002d5b7          	lui	a1,0x2d
   1055c:	eea60613          	addi	a2,a2,-278 # 17eea <_ZNSt15underflow_errorD1Ev>
   10560:	73058593          	addi	a1,a1,1840 # 2d730 <_ZTISt15underflow_error>
   10564:	8522                	mv	a0,s0
   10566:	02a010ef          	jal	11590 <__cxa_throw>
   1056a:	84aa                	mv	s1,a0
   1056c:	8522                	mv	a0,s0
   1056e:	170070ef          	jal	176de <__cxa_free_exception>
   10572:	8526                	mv	a0,s1
   10574:	2d10c0ef          	jal	1d044 <_Unwind_Resume>

0000000000010578 <_ZN9__gnu_cxx26__throw_insufficient_spaceEPKcS1_>:
   10578:	7175                	addi	sp,sp,-144
   1057a:	e122                	sd	s0,128(sp)
   1057c:	fca6                	sd	s1,120(sp)
   1057e:	0900                	addi	s0,sp,144
   10580:	40a584b3          	sub	s1,a1,a0
   10584:	0002b5b7          	lui	a1,0x2b
   10588:	e506                	sd	ra,136(sp)
   1058a:	f8ca                	sd	s2,112(sp)
   1058c:	06900613          	li	a2,105
   10590:	892a                	mv	s2,a0
   10592:	4b058593          	addi	a1,a1,1200 # 2b4b0 <__clzdi2+0x11e0>
   10596:	f7040513          	addi	a0,s0,-144
   1059a:	2b6100ef          	jal	20850 <memcpy>
   1059e:	07848793          	addi	a5,s1,120
   105a2:	9bc1                	andi	a5,a5,-16
   105a4:	40f10133          	sub	sp,sp,a5
   105a8:	06800613          	li	a2,104
   105ac:	f7040593          	addi	a1,s0,-144
   105b0:	850a                	mv	a0,sp
   105b2:	29e100ef          	jal	20850 <memcpy>
   105b6:	8626                	mv	a2,s1
   105b8:	85ca                	mv	a1,s2
   105ba:	10a8                	addi	a0,sp,104
   105bc:	294100ef          	jal	20850 <memcpy>
   105c0:	948a                	add	s1,s1,sp
   105c2:	06048423          	sb	zero,104(s1)
   105c6:	850a                	mv	a0,sp
   105c8:	d35ff0ef          	jal	102fc <_ZSt19__throw_logic_errorPKc>

00000000000105cc <_ZSt20__throw_system_errori>:
   105cc:	7139                	addi	sp,sp,-64
   105ce:	f04a                	sd	s2,32(sp)
   105d0:	892a                	mv	s2,a0
   105d2:	02000513          	li	a0,32
   105d6:	f822                	sd	s0,48(sp)
   105d8:	f426                	sd	s1,40(sp)
   105da:	fc06                	sd	ra,56(sp)
   105dc:	0c8070ef          	jal	176a4 <__cxa_allocate_exception>
   105e0:	9381b783          	ld	a5,-1736(gp) # 36380 <_ZN12_GLOBAL__N_1L25generic_category_instanceE>
   105e4:	84aa                	mv	s1,a0
   105e6:	864a                	mv	a2,s2
   105e8:	739c                	ld	a5,32(a5)
   105ea:	93818593          	addi	a1,gp,-1736 # 36380 <_ZN12_GLOBAL__N_1L25generic_category_instanceE>
   105ee:	850a                	mv	a0,sp
   105f0:	9782                	jalr	a5
   105f2:	858a                	mv	a1,sp
   105f4:	8526                	mv	a0,s1
   105f6:	1570a0ef          	jal	1af4c <_ZNSt13runtime_errorC1ERKNSt7__cxx1112basic_stringIcSt11char_traitsIcESaIcEEE>
   105fa:	850a                	mv	a0,sp
   105fc:	1c2010ef          	jal	117be <_ZNSt7__cxx1112basic_stringIcSt11char_traitsIcESaIcEE10_M_disposeEv>
   10600:	0002e7b7          	lui	a5,0x2e
   10604:	aa078793          	addi	a5,a5,-1376 # 2daa0 <_ZTVSt12system_error+0x10>
   10608:	93818413          	addi	s0,gp,-1736 # 36380 <_ZN12_GLOBAL__N_1L25generic_category_instanceE>
   1060c:	666d                	lui	a2,0x1b
   1060e:	0002e5b7          	lui	a1,0x2e
   10612:	e09c                	sd	a5,0(s1)
   10614:	0124a823          	sw	s2,16(s1)
   10618:	ec80                	sd	s0,24(s1)
   1061a:	d4460613          	addi	a2,a2,-700 # 1ad44 <_ZNSt12system_errorD1Ev>
   1061e:	8f858593          	addi	a1,a1,-1800 # 2d8f8 <_ZTISt12system_error>
   10622:	8526                	mv	a0,s1
   10624:	76d000ef          	jal	11590 <__cxa_throw>
   10628:	842a                	mv	s0,a0
   1062a:	850a                	mv	a0,sp
   1062c:	192010ef          	jal	117be <_ZNSt7__cxx1112basic_stringIcSt11char_traitsIcESaIcEE10_M_disposeEv>
   10630:	8526                	mv	a0,s1
   10632:	0ac070ef          	jal	176de <__cxa_free_exception>
   10636:	8522                	mv	a0,s0
   10638:	20d0c0ef          	jal	1d044 <_Unwind_Resume>
   1063c:	842a                	mv	s0,a0
   1063e:	bfcd                	j	10630 <_ZSt20__throw_system_errori+0x64>

0000000000010640 <exit>:
   10640:	1141                	addi	sp,sp,-16
   10642:	4581                	li	a1,0
   10644:	e022                	sd	s0,0(sp)
   10646:	e406                	sd	ra,8(sp)
   10648:	842a                	mv	s0,a0
   1064a:	4ea100ef          	jal	20b34 <__call_exitprocs>
   1064e:	9981b783          	ld	a5,-1640(gp) # 363e0 <__stdio_exit_handler>
   10652:	c391                	beqz	a5,10656 <exit+0x16>
   10654:	9782                	jalr	a5
   10656:	8522                	mv	a0,s0
   10658:	085180ef          	jal	28edc <_exit>

000000000001065c <main>:
   1065c:	7121                	addi	sp,sp,-448
   1065e:	ff06                	sd	ra,440(sp)
   10660:	fb22                	sd	s0,432(sp)
   10662:	80010113          	addi	sp,sp,-2048
   10666:	80010113          	addi	sp,sp,-2048
   1066a:	0028                	addi	a0,sp,8
   1066c:	25a000ef          	jal	108c6 <_ZN3HPCC1Ev>
   10670:	0028                	addi	a0,sp,8
   10672:	600000ef          	jal	10c72 <_ZN3HPC16startMeasurementEv>
   10676:	1b10                	addi	a2,sp,432
   10678:	4781                	li	a5,0
   1067a:	3e800593          	li	a1,1000
   1067e:	00279713          	slli	a4,a5,0x2
   10682:	0017969b          	slliw	a3,a5,0x1
   10686:	9732                	add	a4,a4,a2
   10688:	d334                	sw	a3,96(a4)
   1068a:	2785                	addiw	a5,a5,1
   1068c:	feb799e3          	bne	a5,a1,1067e <main+0x22>
   10690:	0028                	addi	a0,sp,8
   10692:	66c000ef          	jal	10cfe <_ZN3HPC14endMeasurementEv>
   10696:	0028                	addi	a0,sp,8
   10698:	70a000ef          	jal	10da2 <_ZN3HPC10printStatsEv>
   1069c:	0028                	addi	a0,sp,8
   1069e:	6cc000ef          	jal	10d6a <_ZN3HPC8printCSVEv>
   106a2:	0028                	addi	a0,sp,8
   106a4:	5a0000ef          	jal	10c44 <_ZN3HPCD1Ev>
   106a8:	6285                	lui	t0,0x1
   106aa:	9116                	add	sp,sp,t0
   106ac:	70fa                	ld	ra,440(sp)
   106ae:	745a                	ld	s0,432(sp)
   106b0:	4501                	li	a0,0
   106b2:	6139                	addi	sp,sp,448
   106b4:	8082                	ret
   106b6:	842a                	mv	s0,a0
   106b8:	0028                	addi	a0,sp,8
   106ba:	58a000ef          	jal	10c44 <_ZN3HPCD1Ev>
   106be:	8522                	mv	a0,s0
   106c0:	1850c0ef          	jal	1d044 <_Unwind_Resume>

00000000000106c4 <_GLOBAL__sub_I__ZN9__gnu_cxx9__freeresEv>:
   106c4:	7175                	addi	sp,sp,-144
   106c6:	fca6                	sd	s1,120(sp)
   106c8:	0002b537          	lui	a0,0x2b
   106cc:	0003a4b7          	lui	s1,0x3a
   106d0:	e122                	sd	s0,128(sp)
   106d2:	f0d2                	sd	s4,96(sp)
   106d4:	ecd6                	sd	s5,88(sp)
   106d6:	e506                	sd	ra,136(sp)
   106d8:	f8ca                	sd	s2,112(sp)
   106da:	f4ce                	sd	s3,104(sp)
   106dc:	44848493          	addi	s1,s1,1096 # 3a448 <_ZN12_GLOBAL__N_1L14emergency_poolE>
   106e0:	44050513          	addi	a0,a0,1088 # 2b440 <__clzdi2+0x1170>
   106e4:	0004b423          	sd	zero,8(s1)
   106e8:	0004b823          	sd	zero,16(s1)
   106ec:	0004bc23          	sd	zero,24(s1)
   106f0:	5370d0ef          	jal	1e426 <getenv>
   106f4:	47bd                	li	a5,15
   106f6:	e83e                	sd	a5,16(sp)
   106f8:	0002b7b7          	lui	a5,0x2b
   106fc:	45878793          	addi	a5,a5,1112 # 2b458 <__clzdi2+0x1188>
   10700:	ec3e                	sd	a5,24(sp)
   10702:	47a1                	li	a5,8
   10704:	f03e                	sd	a5,32(sp)
   10706:	0002b7b7          	lui	a5,0x2b
   1070a:	46878793          	addi	a5,a5,1128 # 2b468 <__clzdi2+0x1198>
   1070e:	f43e                	sd	a5,40(sp)
   10710:	47a5                	li	a5,9
   10712:	fc3e                	sd	a5,56(sp)
   10714:	0002b7b7          	lui	a5,0x2b
   10718:	47878793          	addi	a5,a5,1144 # 2b478 <__clzdi2+0x11a8>
   1071c:	e0be                	sd	a5,64(sp)
   1071e:	4791                	li	a5,4
   10720:	842a                	mv	s0,a0
   10722:	d802                	sw	zero,48(sp)
   10724:	c4be                	sw	a5,72(sp)
   10726:	03a00a13          	li	s4,58
   1072a:	02e00a93          	li	s5,46
   1072e:	e039                	bnez	s0,10774 <_GLOBAL__sub_I__ZN9__gnu_cxx9__freeresEv+0xb0>
   10730:	46a6                	lw	a3,72(sp)
   10732:	04000713          	li	a4,64
   10736:	0006879b          	sext.w	a5,a3
   1073a:	00d75463          	bge	a4,a3,10742 <_GLOBAL__sub_I__ZN9__gnu_cxx9__freeresEv+0x7e>
   1073e:	0007079b          	sext.w	a5,a4
   10742:	5442                	lw	s0,48(sp)
   10744:	e011                	bnez	s0,10748 <_GLOBAL__sub_I__ZN9__gnu_cxx9__freeresEv+0x84>
   10746:	4419                	li	s0,6
   10748:	0479                	addi	s0,s0,30
   1074a:	02f40433          	mul	s0,s0,a5
   1074e:	040e                	slli	s0,s0,0x3
   10750:	ec80                	sd	s0,24(s1)
   10752:	c801                	beqz	s0,10762 <_GLOBAL__sub_I__ZN9__gnu_cxx9__freeresEv+0x9e>
   10754:	8522                	mv	a0,s0
   10756:	5bb0d0ef          	jal	1e510 <malloc>
   1075a:	e888                	sd	a0,16(s1)
   1075c:	e555                	bnez	a0,10808 <_GLOBAL__sub_I__ZN9__gnu_cxx9__freeresEv+0x144>
   1075e:	0004bc23          	sd	zero,24(s1)
   10762:	60aa                	ld	ra,136(sp)
   10764:	640a                	ld	s0,128(sp)
   10766:	74e6                	ld	s1,120(sp)
   10768:	7946                	ld	s2,112(sp)
   1076a:	79a6                	ld	s3,104(sp)
   1076c:	7a06                	ld	s4,96(sp)
   1076e:	6ae6                	ld	s5,88(sp)
   10770:	6149                	addi	sp,sp,144
   10772:	8082                	ret
   10774:	00044783          	lbu	a5,0(s0)
   10778:	01479363          	bne	a5,s4,1077e <_GLOBAL__sub_I__ZN9__gnu_cxx9__freeresEv+0xba>
   1077c:	0405                	addi	s0,s0,1
   1077e:	473d                	li	a4,15
   10780:	86a2                	mv	a3,s0
   10782:	863a                	mv	a2,a4
   10784:	4581                	li	a1,0
   10786:	0808                	addi	a0,sp,16
   10788:	7cd060ef          	jal	17754 <_ZNKSt17basic_string_viewIcSt11char_traitsIcEE7compareEmmPKcm>
   1078c:	ed15                	bnez	a0,107c8 <_GLOBAL__sub_I__ZN9__gnu_cxx9__freeresEv+0x104>
   1078e:	00f44783          	lbu	a5,15(s0)
   10792:	03579b63          	bne	a5,s5,107c8 <_GLOBAL__sub_I__ZN9__gnu_cxx9__freeresEv+0x104>
   10796:	0441                	addi	s0,s0,16
   10798:	02010913          	addi	s2,sp,32
   1079c:	00093983          	ld	s3,0(s2)
   107a0:	86a2                	mv	a3,s0
   107a2:	4581                	li	a1,0
   107a4:	874e                	mv	a4,s3
   107a6:	864e                	mv	a2,s3
   107a8:	854a                	mv	a0,s2
   107aa:	7ab060ef          	jal	17754 <_ZNKSt17basic_string_viewIcSt11char_traitsIcEE7compareEmmPKcm>
   107ae:	e909                	bnez	a0,107c0 <_GLOBAL__sub_I__ZN9__gnu_cxx9__freeresEv+0xfc>
   107b0:	013407b3          	add	a5,s0,s3
   107b4:	0007c703          	lbu	a4,0(a5)
   107b8:	03d00793          	li	a5,61
   107bc:	00f70d63          	beq	a4,a5,107d6 <_GLOBAL__sub_I__ZN9__gnu_cxx9__freeresEv+0x112>
   107c0:	0961                	addi	s2,s2,24
   107c2:	089c                	addi	a5,sp,80
   107c4:	fcf91ce3          	bne	s2,a5,1079c <_GLOBAL__sub_I__ZN9__gnu_cxx9__freeresEv+0xd8>
   107c8:	8522                	mv	a0,s0
   107ca:	03a00593          	li	a1,58
   107ce:	7620f0ef          	jal	1ff30 <strchr>
   107d2:	842a                	mv	s0,a0
   107d4:	bfa9                	j	1072e <_GLOBAL__sub_I__ZN9__gnu_cxx9__freeresEv+0x6a>
   107d6:	00198513          	addi	a0,s3,1
   107da:	9522                	add	a0,a0,s0
   107dc:	4601                	li	a2,0
   107de:	002c                	addi	a1,sp,8
   107e0:	1c90e0ef          	jal	1f1a8 <strtoul>
   107e4:	6422                	ld	s0,8(sp)
   107e6:	00044703          	lbu	a4,0(s0)
   107ea:	fc670793          	addi	a5,a4,-58
   107ee:	0017b793          	seqz	a5,a5
   107f2:	00173713          	seqz	a4,a4
   107f6:	8fd9                	or	a5,a5,a4
   107f8:	dbe1                	beqz	a5,107c8 <_GLOBAL__sub_I__ZN9__gnu_cxx9__freeresEv+0x104>
   107fa:	4785                	li	a5,1
   107fc:	07fe                	slli	a5,a5,0x1f
   107fe:	fcf575e3          	bgeu	a0,a5,107c8 <_GLOBAL__sub_I__ZN9__gnu_cxx9__freeresEv+0x104>
   10802:	00a92823          	sw	a0,16(s2)
   10806:	b7c9                	j	107c8 <_GLOBAL__sub_I__ZN9__gnu_cxx9__freeresEv+0x104>
   10808:	e488                	sd	a0,8(s1)
   1080a:	e100                	sd	s0,0(a0)
   1080c:	00053423          	sd	zero,8(a0)
   10810:	bf89                	j	10762 <_GLOBAL__sub_I__ZN9__gnu_cxx9__freeresEv+0x9e>

0000000000010812 <_GLOBAL__sub_I__ZSt20__throw_system_errori>:
   10812:	8082                	ret

0000000000010814 <register_fini>:
   10814:	00000793          	li	a5,0
   10818:	c799                	beqz	a5,10826 <register_fini+0x12>
   1081a:	00026537          	lui	a0,0x26
   1081e:	95650513          	addi	a0,a0,-1706 # 25956 <__libc_fini_array>
   10822:	3e41006f          	j	20c06 <atexit>
   10826:	8082                	ret

0000000000010828 <_start>:
   10828:	00026197          	auipc	gp,0x26
   1082c:	22018193          	addi	gp,gp,544 # 36a48 <__global_pointer$>
   10830:	00000513          	li	a0,0
   10834:	c119                	beqz	a0,1083a <_start+0x12>
   10836:	01751073          	csrw	jvt,a0
   1083a:	00026517          	auipc	a0,0x26
   1083e:	b6e50513          	addi	a0,a0,-1170 # 363a8 <_ZZN9__gnu_cxx27__verbose_terminate_handlerEvE11terminating>
   10842:	0002a617          	auipc	a2,0x2a
   10846:	25660613          	addi	a2,a2,598 # 3aa98 <__BSS_END__>
   1084a:	8e09                	sub	a2,a2,a0
   1084c:	4581                	li	a1,0
   1084e:	7590f0ef          	jal	207a6 <memset>
   10852:	00010517          	auipc	a0,0x10
   10856:	3b450513          	addi	a0,a0,948 # 20c06 <atexit>
   1085a:	c519                	beqz	a0,10868 <_start+0x40>
   1085c:	00015517          	auipc	a0,0x15
   10860:	0fa50513          	addi	a0,a0,250 # 25956 <__libc_fini_array>
   10864:	3a2100ef          	jal	20c06 <atexit>
   10868:	5c50f0ef          	jal	2062c <__libc_init_array>
   1086c:	4502                	lw	a0,0(sp)
   1086e:	002c                	addi	a1,sp,8
   10870:	00351613          	slli	a2,a0,0x3
   10874:	0621                	addi	a2,a2,8
   10876:	962e                	add	a2,a2,a1
   10878:	de5ff0ef          	jal	1065c <main>
   1087c:	b3d1                	j	10640 <exit>

000000000001087e <__do_global_dtors_aux>:
   1087e:	1141                	addi	sp,sp,-16
   10880:	e022                	sd	s0,0(sp)
   10882:	9c81c783          	lbu	a5,-1592(gp) # 36410 <completed.1>
   10886:	e406                	sd	ra,8(sp)
   10888:	ef91                	bnez	a5,108a4 <__do_global_dtors_aux+0x26>
   1088a:	67f9                	lui	a5,0x1e
   1088c:	33678793          	addi	a5,a5,822 # 1e336 <__deregister_frame_info>
   10890:	c799                	beqz	a5,1089e <__do_global_dtors_aux+0x20>
   10892:	0002e537          	lui	a0,0x2e
   10896:	7a050513          	addi	a0,a0,1952 # 2e7a0 <__EH_FRAME_BEGIN__>
   1089a:	29d0d0ef          	jal	1e336 <__deregister_frame_info>
   1089e:	4785                	li	a5,1
   108a0:	9cf18423          	sb	a5,-1592(gp) # 36410 <completed.1>
   108a4:	60a2                	ld	ra,8(sp)
   108a6:	6402                	ld	s0,0(sp)
   108a8:	0141                	addi	sp,sp,16
   108aa:	8082                	ret

00000000000108ac <frame_dummy>:
   108ac:	67f9                	lui	a5,0x1e
   108ae:	25878793          	addi	a5,a5,600 # 1e258 <__register_frame_info>
   108b2:	cb89                	beqz	a5,108c4 <frame_dummy+0x18>
   108b4:	0002e537          	lui	a0,0x2e
   108b8:	9d018593          	addi	a1,gp,-1584 # 36418 <object.0>
   108bc:	7a050513          	addi	a0,a0,1952 # 2e7a0 <__EH_FRAME_BEGIN__>
   108c0:	1990d06f          	j	1e258 <__register_frame_info>
   108c4:	8082                	ret

00000000000108c6 <_ZN3HPCC1Ev>:
   108c6:	0002c737          	lui	a4,0x2c
   108ca:	fb070713          	addi	a4,a4,-80 # 2bfb0 <__clzdi2+0x1ce0>
   108ce:	630c                	ld	a1,0(a4)
   108d0:	711d                	addi	sp,sp,-96
   108d2:	6710                	ld	a2,8(a4)
   108d4:	6b14                	ld	a3,16(a4)
   108d6:	0002a7b7          	lui	a5,0x2a
   108da:	e8a2                	sd	s0,80(sp)
   108dc:	ec86                	sd	ra,88(sp)
   108de:	30078793          	addi	a5,a5,768 # 2a300 <__clzdi2+0x30>
   108e2:	842a                	mv	s0,a0
   108e4:	e10c                	sd	a1,0(a0)
   108e6:	0007cf83          	lbu	t6,0(a5)
   108ea:	0017cf03          	lbu	t5,1(a5)
   108ee:	0027ce83          	lbu	t4,2(a5)
   108f2:	0037ce03          	lbu	t3,3(a5)
   108f6:	0047c303          	lbu	t1,4(a5)
   108fa:	0057c883          	lbu	a7,5(a5)
   108fe:	0067c803          	lbu	a6,6(a5)
   10902:	01873383          	ld	t2,24(a4)
   10906:	02073283          	ld	t0,32(a4)
   1090a:	0087c583          	lbu	a1,8(a5)
   1090e:	0077c503          	lbu	a0,7(a5)
   10912:	e410                	sd	a2,8(s0)
   10914:	e814                	sd	a3,16(s0)
   10916:	0097c603          	lbu	a2,9(a5)
   1091a:	00a7c683          	lbu	a3,10(a5)
   1091e:	03840713          	addi	a4,s0,56
   10922:	0002a7b7          	lui	a5,0x2a
   10926:	31078793          	addi	a5,a5,784 # 2a310 <__clzdi2+0x40>
   1092a:	03f40c23          	sb	t6,56(s0)
   1092e:	f418                	sd	a4,40(s0)
   10930:	03e40ca3          	sb	t5,57(s0)
   10934:	03d40d23          	sb	t4,58(s0)
   10938:	03c40da3          	sb	t3,59(s0)
   1093c:	02640e23          	sb	t1,60(s0)
   10940:	03140ea3          	sb	a7,61(s0)
   10944:	03040f23          	sb	a6,62(s0)
   10948:	00743c23          	sd	t2,24(s0)
   1094c:	02543023          	sd	t0,32(s0)
   10950:	02a40fa3          	sb	a0,63(s0)
   10954:	0077c503          	lbu	a0,7(a5)
   10958:	0007cf83          	lbu	t6,0(a5)
   1095c:	0017cf03          	lbu	t5,1(a5)
   10960:	0027ce83          	lbu	t4,2(a5)
   10964:	0037ce03          	lbu	t3,3(a5)
   10968:	0047c303          	lbu	t1,4(a5)
   1096c:	0057c883          	lbu	a7,5(a5)
   10970:	0067c803          	lbu	a6,6(a5)
   10974:	00b7c703          	lbu	a4,11(a5)
   10978:	04b40023          	sb	a1,64(s0)
   1097c:	04c400a3          	sb	a2,65(s0)
   10980:	0087c583          	lbu	a1,8(a5)
   10984:	0097c603          	lbu	a2,9(a5)
   10988:	04d40123          	sb	a3,66(s0)
   1098c:	00a7c683          	lbu	a3,10(a5)
   10990:	47ad                	li	a5,11
   10992:	f81c                	sd	a5,48(s0)
   10994:	05840793          	addi	a5,s0,88
   10998:	e43c                	sd	a5,72(s0)
   1099a:	47b1                	li	a5,12
   1099c:	e83c                	sd	a5,80(s0)
   1099e:	07840793          	addi	a5,s0,120
   109a2:	04a40fa3          	sb	a0,95(s0)
   109a6:	06b40023          	sb	a1,96(s0)
   109aa:	06c400a3          	sb	a2,97(s0)
   109ae:	f43c                	sd	a5,104(s0)
   109b0:	040401a3          	sb	zero,67(s0)
   109b4:	05f40c23          	sb	t6,88(s0)
   109b8:	05e40ca3          	sb	t5,89(s0)
   109bc:	05d40d23          	sb	t4,90(s0)
   109c0:	05c40da3          	sb	t3,91(s0)
   109c4:	04640e23          	sb	t1,92(s0)
   109c8:	05140ea3          	sb	a7,93(s0)
   109cc:	05040f23          	sb	a6,94(s0)
   109d0:	06d40123          	sb	a3,98(s0)
   109d4:	06e401a3          	sb	a4,99(s0)
   109d8:	47d1                	li	a5,20
   109da:	06840513          	addi	a0,s0,104
   109de:	4601                	li	a2,0
   109e0:	082c                	addi	a1,sp,24
   109e2:	06040223          	sb	zero,100(s0)
   109e6:	ec3e                	sd	a5,24(sp)
   109e8:	59f000ef          	jal	11786 <_ZNSt7__cxx1112basic_stringIcSt11char_traitsIcESaIcEE9_M_createERmm>
   109ec:	67e2                	ld	a5,24(sp)
   109ee:	0002a5b7          	lui	a1,0x2a
   109f2:	32058593          	addi	a1,a1,800 # 2a320 <__clzdi2+0x50>
   109f6:	fc3c                	sd	a5,120(s0)
   109f8:	4651                	li	a2,20
   109fa:	f428                	sd	a0,104(s0)
   109fc:	6550f0ef          	jal	20850 <memcpy>
   10a00:	66e2                	ld	a3,24(sp)
   10a02:	7438                	ld	a4,104(s0)
   10a04:	09840793          	addi	a5,s0,152
   10a08:	f834                	sd	a3,112(s0)
   10a0a:	9736                	add	a4,a4,a3
   10a0c:	00070023          	sb	zero,0(a4)
   10a10:	e45c                	sd	a5,136(s0)
   10a12:	100c                	addi	a1,sp,32
   10a14:	47d5                	li	a5,21
   10a16:	08840513          	addi	a0,s0,136
   10a1a:	4601                	li	a2,0
   10a1c:	f03e                	sd	a5,32(sp)
   10a1e:	569000ef          	jal	11786 <_ZNSt7__cxx1112basic_stringIcSt11char_traitsIcESaIcEE9_M_createERmm>
   10a22:	7782                	ld	a5,32(sp)
   10a24:	0002a5b7          	lui	a1,0x2a
   10a28:	33858593          	addi	a1,a1,824 # 2a338 <__clzdi2+0x68>
   10a2c:	ec5c                	sd	a5,152(s0)
   10a2e:	4655                	li	a2,21
   10a30:	e448                	sd	a0,136(s0)
   10a32:	61f0f0ef          	jal	20850 <memcpy>
   10a36:	7682                	ld	a3,32(sp)
   10a38:	6458                	ld	a4,136(s0)
   10a3a:	0b840793          	addi	a5,s0,184
   10a3e:	e854                	sd	a3,144(s0)
   10a40:	9736                	add	a4,a4,a3
   10a42:	00070023          	sb	zero,0(a4)
   10a46:	f45c                	sd	a5,168(s0)
   10a48:	102c                	addi	a1,sp,40
   10a4a:	47d9                	li	a5,22
   10a4c:	0a840513          	addi	a0,s0,168
   10a50:	4601                	li	a2,0
   10a52:	f43e                	sd	a5,40(sp)
   10a54:	533000ef          	jal	11786 <_ZNSt7__cxx1112basic_stringIcSt11char_traitsIcESaIcEE9_M_createERmm>
   10a58:	77a2                	ld	a5,40(sp)
   10a5a:	0002a5b7          	lui	a1,0x2a
   10a5e:	35058593          	addi	a1,a1,848 # 2a350 <__clzdi2+0x80>
   10a62:	fc5c                	sd	a5,184(s0)
   10a64:	4659                	li	a2,22
   10a66:	f448                	sd	a0,168(s0)
   10a68:	5e90f0ef          	jal	20850 <memcpy>
   10a6c:	7722                	ld	a4,40(sp)
   10a6e:	745c                	ld	a5,168(s0)
   10a70:	0d840513          	addi	a0,s0,216
   10a74:	f858                	sd	a4,176(s0)
   10a76:	97ba                	add	a5,a5,a4
   10a78:	00078023          	sb	zero,0(a5)
   10a7c:	0002a5b7          	lui	a1,0x2a
   10a80:	463d                	li	a2,15
   10a82:	36858593          	addi	a1,a1,872 # 2a368 <__clzdi2+0x98>
   10a86:	e468                	sd	a0,200(s0)
   10a88:	5c90f0ef          	jal	20850 <memcpy>
   10a8c:	463d                	li	a2,15
   10a8e:	0f840793          	addi	a5,s0,248
   10a92:	e870                	sd	a2,208(s0)
   10a94:	f47c                	sd	a5,232(s0)
   10a96:	0e0403a3          	sb	zero,231(s0)
   10a9a:	02b00793          	li	a5,43
   10a9e:	180c                	addi	a1,sp,48
   10aa0:	0e840513          	addi	a0,s0,232
   10aa4:	4601                	li	a2,0
   10aa6:	f83e                	sd	a5,48(sp)
   10aa8:	4df000ef          	jal	11786 <_ZNSt7__cxx1112basic_stringIcSt11char_traitsIcESaIcEE9_M_createERmm>
   10aac:	77c2                	ld	a5,48(sp)
   10aae:	0002a5b7          	lui	a1,0x2a
   10ab2:	37858593          	addi	a1,a1,888 # 2a378 <__clzdi2+0xa8>
   10ab6:	fc7c                	sd	a5,248(s0)
   10ab8:	02b00613          	li	a2,43
   10abc:	f468                	sd	a0,232(s0)
   10abe:	5930f0ef          	jal	20850 <memcpy>
   10ac2:	76c2                	ld	a3,48(sp)
   10ac4:	7478                	ld	a4,232(s0)
   10ac6:	11840793          	addi	a5,s0,280
   10aca:	f874                	sd	a3,240(s0)
   10acc:	9736                	add	a4,a4,a3
   10ace:	00070023          	sb	zero,0(a4)
   10ad2:	10f43423          	sd	a5,264(s0)
   10ad6:	182c                	addi	a1,sp,56
   10ad8:	47d1                	li	a5,20
   10ada:	10840513          	addi	a0,s0,264
   10ade:	4601                	li	a2,0
   10ae0:	fc3e                	sd	a5,56(sp)
   10ae2:	4a5000ef          	jal	11786 <_ZNSt7__cxx1112basic_stringIcSt11char_traitsIcESaIcEE9_M_createERmm>
   10ae6:	77e2                	ld	a5,56(sp)
   10ae8:	0002a5b7          	lui	a1,0x2a
   10aec:	3a858593          	addi	a1,a1,936 # 2a3a8 <__clzdi2+0xd8>
   10af0:	10f43c23          	sd	a5,280(s0)
   10af4:	4651                	li	a2,20
   10af6:	10a43423          	sd	a0,264(s0)
   10afa:	5570f0ef          	jal	20850 <memcpy>
   10afe:	7762                	ld	a4,56(sp)
   10b00:	10843783          	ld	a5,264(s0)
   10b04:	13840513          	addi	a0,s0,312
   10b08:	10e43823          	sd	a4,272(s0)
   10b0c:	97ba                	add	a5,a5,a4
   10b0e:	00078023          	sb	zero,0(a5)
   10b12:	0002a5b7          	lui	a1,0x2a
   10b16:	4635                	li	a2,13
   10b18:	3c058593          	addi	a1,a1,960 # 2a3c0 <__clzdi2+0xf0>
   10b1c:	12a43423          	sd	a0,296(s0)
   10b20:	5310f0ef          	jal	20850 <memcpy>
   10b24:	0002a7b7          	lui	a5,0x2a
   10b28:	3d078793          	addi	a5,a5,976 # 2a3d0 <__clzdi2+0x100>
   10b2c:	4635                	li	a2,13
   10b2e:	0067c503          	lbu	a0,6(a5)
   10b32:	0077c583          	lbu	a1,7(a5)
   10b36:	0007cf03          	lbu	t5,0(a5)
   10b3a:	0017ce83          	lbu	t4,1(a5)
   10b3e:	0027ce03          	lbu	t3,2(a5)
   10b42:	0037c303          	lbu	t1,3(a5)
   10b46:	0047c883          	lbu	a7,4(a5)
   10b4a:	0057c803          	lbu	a6,5(a5)
   10b4e:	0097c683          	lbu	a3,9(a5)
   10b52:	00a7c703          	lbu	a4,10(a5)
   10b56:	12c43823          	sd	a2,304(s0)
   10b5a:	0087c603          	lbu	a2,8(a5)
   10b5e:	15840793          	addi	a5,s0,344
   10b62:	14f43423          	sd	a5,328(s0)
   10b66:	47ad                	li	a5,11
   10b68:	14a40f23          	sb	a0,350(s0)
   10b6c:	14b40fa3          	sb	a1,351(s0)
   10b70:	16c40023          	sb	a2,352(s0)
   10b74:	140402a3          	sb	zero,325(s0)
   10b78:	15e40c23          	sb	t5,344(s0)
   10b7c:	15d40ca3          	sb	t4,345(s0)
   10b80:	15c40d23          	sb	t3,346(s0)
   10b84:	14640da3          	sb	t1,347(s0)
   10b88:	15140e23          	sb	a7,348(s0)
   10b8c:	15040ea3          	sb	a6,349(s0)
   10b90:	16d400a3          	sb	a3,353(s0)
   10b94:	16e40123          	sb	a4,354(s0)
   10b98:	14f43823          	sd	a5,336(s0)
   10b9c:	160401a3          	sb	zero,355(s0)
   10ba0:	16840513          	addi	a0,s0,360
   10ba4:	0a000613          	li	a2,160
   10ba8:	4581                	li	a1,0
   10baa:	3fd0f0ef          	jal	207a6 <memset>
   10bae:	0002a537          	lui	a0,0x2a
   10bb2:	3e050513          	addi	a0,a0,992 # 2a3e0 <__clzdi2+0x110>
   10bb6:	75b0e0ef          	jal	1fb10 <puts>
   10bba:	20000793          	li	a5,512
   10bbe:	32379073          	csrw	mhpmevent3,a5
   10bc2:	40000793          	li	a5,1024
   10bc6:	32479073          	csrw	mhpmevent4,a5
   10bca:	6785                	lui	a5,0x1
   10bcc:	0785                	addi	a5,a5,1 # 1001 <_ZSt9terminatev-0xf11f>
   10bce:	32579073          	csrw	mhpmevent5,a5
   10bd2:	60e6                	ld	ra,88(sp)
   10bd4:	6446                	ld	s0,80(sp)
   10bd6:	6125                	addi	sp,sp,96
   10bd8:	8082                	ret
   10bda:	87aa                	mv	a5,a0
   10bdc:	469d                	li	a3,7
   10bde:	4725                	li	a4,9
   10be0:	8f15                	sub	a4,a4,a3
   10be2:	0716                	slli	a4,a4,0x5
   10be4:	02840693          	addi	a3,s0,40
   10be8:	e4a6                	sd	s1,72(sp)
   10bea:	00e68433          	add	s0,a3,a4
   10bee:	02d41463          	bne	s0,a3,10c16 <_ZN3HPCC1Ev+0x350>
   10bf2:	853e                	mv	a0,a5
   10bf4:	4500c0ef          	jal	1d044 <_Unwind_Resume>
   10bf8:	e4a6                	sd	s1,72(sp)
   10bfa:	84aa                	mv	s1,a0
   10bfc:	14840513          	addi	a0,s0,328
   10c00:	0421                	addi	s0,s0,8
   10c02:	e02a                	sd	a0,0(sp)
   10c04:	3bb000ef          	jal	117be <_ZNSt7__cxx1112basic_stringIcSt11char_traitsIcESaIcEE10_M_disposeEv>
   10c08:	6502                	ld	a0,0(sp)
   10c0a:	1501                	addi	a0,a0,-32
   10c0c:	fe851be3          	bne	a0,s0,10c02 <_ZN3HPCC1Ev+0x33c>
   10c10:	8526                	mv	a0,s1
   10c12:	4320c0ef          	jal	1d044 <_Unwind_Resume>
   10c16:	1401                	addi	s0,s0,-32
   10c18:	8522                	mv	a0,s0
   10c1a:	e43e                	sd	a5,8(sp)
   10c1c:	e036                	sd	a3,0(sp)
   10c1e:	3a1000ef          	jal	117be <_ZNSt7__cxx1112basic_stringIcSt11char_traitsIcESaIcEE10_M_disposeEv>
   10c22:	6682                	ld	a3,0(sp)
   10c24:	67a2                	ld	a5,8(sp)
   10c26:	fed418e3          	bne	s0,a3,10c16 <_ZN3HPCC1Ev+0x350>
   10c2a:	b7e1                	j	10bf2 <_ZN3HPCC1Ev+0x32c>
   10c2c:	87aa                	mv	a5,a0
   10c2e:	4689                	li	a3,2
   10c30:	b77d                	j	10bde <_ZN3HPCC1Ev+0x318>
   10c32:	87aa                	mv	a5,a0
   10c34:	468d                	li	a3,3
   10c36:	b765                	j	10bde <_ZN3HPCC1Ev+0x318>
   10c38:	87aa                	mv	a5,a0
   10c3a:	4695                	li	a3,5
   10c3c:	b74d                	j	10bde <_ZN3HPCC1Ev+0x318>
   10c3e:	87aa                	mv	a5,a0
   10c40:	4699                	li	a3,6
   10c42:	bf71                	j	10bde <_ZN3HPCC1Ev+0x318>

0000000000010c44 <_ZN3HPCD1Ev>:
   10c44:	1101                	addi	sp,sp,-32
   10c46:	e822                	sd	s0,16(sp)
   10c48:	e426                	sd	s1,8(sp)
   10c4a:	ec06                	sd	ra,24(sp)
   10c4c:	14850413          	addi	s0,a0,328
   10c50:	00850493          	addi	s1,a0,8
   10c54:	6008                	ld	a0,0(s0)
   10c56:	01040793          	addi	a5,s0,16
   10c5a:	00f50463          	beq	a0,a5,10c62 <_ZN3HPCD1Ev+0x1e>
   10c5e:	18a000ef          	jal	10de8 <_ZdlPv>
   10c62:	1401                	addi	s0,s0,-32
   10c64:	fe9418e3          	bne	s0,s1,10c54 <_ZN3HPCD1Ev+0x10>
   10c68:	60e2                	ld	ra,24(sp)
   10c6a:	6442                	ld	s0,16(sp)
   10c6c:	64a2                	ld	s1,8(sp)
   10c6e:	6105                	addi	sp,sp,32
   10c70:	8082                	ret

0000000000010c72 <_ZN3HPC16startMeasurementEv>:
   10c72:	000366b7          	lui	a3,0x36
   10c76:	44868693          	addi	a3,a3,1096 # 36448 <_ZN3HPC13cacheThrasherE>
   10c7a:	1141                	addi	sp,sp,-16
   10c7c:	87b6                	mv	a5,a3
   10c7e:	6711                	lui	a4,0x4
   10c80:	4605                	li	a2,1
   10c82:	e022                	sd	s0,0(sp)
   10c84:	e406                	sd	ra,8(sp)
   10c86:	842a                	mv	s0,a0
   10c88:	96ba                	add	a3,a3,a4
   10c8a:	9e1d                	subw	a2,a2,a5
   10c8c:	00f6073b          	addw	a4,a2,a5
   10c90:	00e78023          	sb	a4,0(a5)
   10c94:	0785                	addi	a5,a5,1
   10c96:	fed79be3          	bne	a5,a3,10c8c <_ZN3HPC16startMeasurementEv+0x1a>
   10c9a:	0002a537          	lui	a0,0x2a
   10c9e:	43050513          	addi	a0,a0,1072 # 2a430 <__clzdi2+0x160>
   10ca2:	66f0e0ef          	jal	1fb10 <puts>
   10ca6:	c03027f3          	csrr	a5,hpmcounter3
   10caa:	18f43023          	sd	a5,384(s0)
   10cae:	c04027f3          	csrr	a5,hpmcounter4
   10cb2:	18f43423          	sd	a5,392(s0)
   10cb6:	c05027f3          	csrr	a5,hpmcounter5
   10cba:	18f43823          	sd	a5,400(s0)
   10cbe:	c06027f3          	csrr	a5,hpmcounter6
   10cc2:	18f43c23          	sd	a5,408(s0)
   10cc6:	c07027f3          	csrr	a5,hpmcounter7
   10cca:	1af43023          	sd	a5,416(s0)
   10cce:	c08027f3          	csrr	a5,hpmcounter8
   10cd2:	1af43423          	sd	a5,424(s0)
   10cd6:	c09027f3          	csrr	a5,hpmcounter9
   10cda:	1af43823          	sd	a5,432(s0)
   10cde:	c02027f3          	rdinstret	a5
   10ce2:	16f43c23          	sd	a5,376(s0)
   10ce6:	c01027f3          	rdtime	a5
   10cea:	16f43823          	sd	a5,368(s0)
   10cee:	c00027f3          	rdcycle	a5
   10cf2:	60a2                	ld	ra,8(sp)
   10cf4:	16f43423          	sd	a5,360(s0)
   10cf8:	6402                	ld	s0,0(sp)
   10cfa:	0141                	addi	sp,sp,16
   10cfc:	8082                	ret

0000000000010cfe <_ZN3HPC14endMeasurementEv>:
   10cfe:	1141                	addi	sp,sp,-16
   10d00:	0002a7b7          	lui	a5,0x2a
   10d04:	e022                	sd	s0,0(sp)
   10d06:	842a                	mv	s0,a0
   10d08:	49078513          	addi	a0,a5,1168 # 2a490 <__clzdi2+0x1c0>
   10d0c:	e406                	sd	ra,8(sp)
   10d0e:	6030e0ef          	jal	1fb10 <puts>
   10d12:	c03027f3          	csrr	a5,hpmcounter3
   10d16:	1cf43823          	sd	a5,464(s0)
   10d1a:	c04027f3          	csrr	a5,hpmcounter4
   10d1e:	1cf43c23          	sd	a5,472(s0)
   10d22:	c05027f3          	csrr	a5,hpmcounter5
   10d26:	1ef43023          	sd	a5,480(s0)
   10d2a:	c06027f3          	csrr	a5,hpmcounter6
   10d2e:	1ef43423          	sd	a5,488(s0)
   10d32:	c07027f3          	csrr	a5,hpmcounter7
   10d36:	1ef43823          	sd	a5,496(s0)
   10d3a:	c08027f3          	csrr	a5,hpmcounter8
   10d3e:	1ef43c23          	sd	a5,504(s0)
   10d42:	c09027f3          	csrr	a5,hpmcounter9
   10d46:	20f43023          	sd	a5,512(s0)
   10d4a:	c02027f3          	rdinstret	a5
   10d4e:	1cf43423          	sd	a5,456(s0)
   10d52:	c01027f3          	rdtime	a5
   10d56:	1cf43023          	sd	a5,448(s0)
   10d5a:	c00027f3          	rdcycle	a5
   10d5e:	60a2                	ld	ra,8(sp)
   10d60:	1af43c23          	sd	a5,440(s0)
   10d64:	6402                	ld	s0,0(sp)
   10d66:	0141                	addi	sp,sp,16
   10d68:	8082                	ret

0000000000010d6a <_ZN3HPC8printCSVEv>:
   10d6a:	1101                	addi	sp,sp,-32
   10d6c:	e04a                	sd	s2,0(sp)
   10d6e:	0002a937          	lui	s2,0x2a
   10d72:	e822                	sd	s0,16(sp)
   10d74:	e426                	sd	s1,8(sp)
   10d76:	ec06                	sd	ra,24(sp)
   10d78:	16850413          	addi	s0,a0,360
   10d7c:	1b850493          	addi	s1,a0,440
   10d80:	4e890913          	addi	s2,s2,1256 # 2a4e8 <__clzdi2+0x218>
   10d84:	682c                	ld	a1,80(s0)
   10d86:	601c                	ld	a5,0(s0)
   10d88:	854a                	mv	a0,s2
   10d8a:	0421                	addi	s0,s0,8
   10d8c:	8d9d                	sub	a1,a1,a5
   10d8e:	3bb0e0ef          	jal	1f948 <printf>
   10d92:	fe9419e3          	bne	s0,s1,10d84 <_ZN3HPC8printCSVEv+0x1a>
   10d96:	60e2                	ld	ra,24(sp)
   10d98:	6442                	ld	s0,16(sp)
   10d9a:	64a2                	ld	s1,8(sp)
   10d9c:	6902                	ld	s2,0(sp)
   10d9e:	6105                	addi	sp,sp,32
   10da0:	8082                	ret

0000000000010da2 <_ZN3HPC10printStatsEv>:
   10da2:	7179                	addi	sp,sp,-48
   10da4:	e44e                	sd	s3,8(sp)
   10da6:	0002a9b7          	lui	s3,0x2a
   10daa:	f022                	sd	s0,32(sp)
   10dac:	ec26                	sd	s1,24(sp)
   10dae:	e84a                	sd	s2,16(sp)
   10db0:	f406                	sd	ra,40(sp)
   10db2:	02850493          	addi	s1,a0,40
   10db6:	16850413          	addi	s0,a0,360
   10dba:	1b850913          	addi	s2,a0,440
   10dbe:	4f098993          	addi	s3,s3,1264 # 2a4f0 <__clzdi2+0x220>
   10dc2:	6830                	ld	a2,80(s0)
   10dc4:	601c                	ld	a5,0(s0)
   10dc6:	608c                	ld	a1,0(s1)
   10dc8:	854e                	mv	a0,s3
   10dca:	8e1d                	sub	a2,a2,a5
   10dcc:	0421                	addi	s0,s0,8
   10dce:	37b0e0ef          	jal	1f948 <printf>
   10dd2:	02048493          	addi	s1,s1,32
   10dd6:	ff2416e3          	bne	s0,s2,10dc2 <_ZN3HPC10printStatsEv+0x20>
   10dda:	70a2                	ld	ra,40(sp)
   10ddc:	7402                	ld	s0,32(sp)
   10dde:	64e2                	ld	s1,24(sp)
   10de0:	6942                	ld	s2,16(sp)
   10de2:	69a2                	ld	s3,8(sp)
   10de4:	6145                	addi	sp,sp,48
   10de6:	8082                	ret

0000000000010de8 <_ZdlPv>:
   10de8:	7300d06f          	j	1e518 <free>

0000000000010dec <_ZL12read_uleb128PKhPm>:
   10dec:	4701                	li	a4,0
   10dee:	4681                	li	a3,0
   10df0:	00054783          	lbu	a5,0(a0)
   10df4:	0505                	addi	a0,a0,1
   10df6:	07f7f613          	andi	a2,a5,127
   10dfa:	0187979b          	slliw	a5,a5,0x18
   10dfe:	00d61633          	sll	a2,a2,a3
   10e02:	4187d79b          	sraiw	a5,a5,0x18
   10e06:	8f51                	or	a4,a4,a2
   10e08:	269d                	addiw	a3,a3,7
   10e0a:	fe07c3e3          	bltz	a5,10df0 <_ZL12read_uleb128PKhPm+0x4>
   10e0e:	e198                	sd	a4,0(a1)
   10e10:	8082                	ret

0000000000010e12 <_ZL12read_sleb128PKhPl>:
   10e12:	4781                	li	a5,0
   10e14:	4701                	li	a4,0
   10e16:	00054683          	lbu	a3,0(a0)
   10e1a:	0505                	addi	a0,a0,1
   10e1c:	07f6f613          	andi	a2,a3,127
   10e20:	00e61633          	sll	a2,a2,a4
   10e24:	8fd1                	or	a5,a5,a2
   10e26:	0186961b          	slliw	a2,a3,0x18
   10e2a:	4186561b          	sraiw	a2,a2,0x18
   10e2e:	271d                	addiw	a4,a4,7 # 4007 <_ZSt9terminatev-0xc119>
   10e30:	fe0643e3          	bltz	a2,10e16 <_ZL12read_sleb128PKhPl+0x4>
   10e34:	03f00613          	li	a2,63
   10e38:	00e66963          	bltu	a2,a4,10e4a <_ZL12read_sleb128PKhPl+0x38>
   10e3c:	0406f693          	andi	a3,a3,64
   10e40:	c689                	beqz	a3,10e4a <_ZL12read_sleb128PKhPl+0x38>
   10e42:	56fd                	li	a3,-1
   10e44:	00e69733          	sll	a4,a3,a4
   10e48:	8fd9                	or	a5,a5,a4
   10e4a:	e19c                	sd	a5,0(a1)
   10e4c:	8082                	ret

0000000000010e4e <_ZL16get_adjusted_ptrPKSt9type_infoS1_PPv>:
   10e4e:	621c                	ld	a5,0(a2)
   10e50:	7139                	addi	sp,sp,-64
   10e52:	f822                	sd	s0,48(sp)
   10e54:	ec3e                	sd	a5,24(sp)
   10e56:	619c                	ld	a5,0(a1)
   10e58:	f426                	sd	s1,40(sp)
   10e5a:	e42e                	sd	a1,8(sp)
   10e5c:	6b9c                	ld	a5,16(a5)
   10e5e:	fc06                	sd	ra,56(sp)
   10e60:	84aa                	mv	s1,a0
   10e62:	852e                	mv	a0,a1
   10e64:	8432                	mv	s0,a2
   10e66:	9782                	jalr	a5
   10e68:	65a2                	ld	a1,8(sp)
   10e6a:	c501                	beqz	a0,10e72 <_ZL16get_adjusted_ptrPKSt9type_infoS1_PPv+0x24>
   10e6c:	67e2                	ld	a5,24(sp)
   10e6e:	639c                	ld	a5,0(a5)
   10e70:	ec3e                	sd	a5,24(sp)
   10e72:	609c                	ld	a5,0(s1)
   10e74:	4685                	li	a3,1
   10e76:	0830                	addi	a2,sp,24
   10e78:	739c                	ld	a5,32(a5)
   10e7a:	8526                	mv	a0,s1
   10e7c:	9782                	jalr	a5
   10e7e:	c119                	beqz	a0,10e84 <_ZL16get_adjusted_ptrPKSt9type_infoS1_PPv+0x36>
   10e80:	67e2                	ld	a5,24(sp)
   10e82:	e01c                	sd	a5,0(s0)
   10e84:	70e2                	ld	ra,56(sp)
   10e86:	7442                	ld	s0,48(sp)
   10e88:	74a2                	ld	s1,40(sp)
   10e8a:	6121                	addi	sp,sp,64
   10e8c:	8082                	ret

0000000000010e8e <_ZL28read_encoded_value_with_basehmPKhPm>:
   10e8e:	7139                	addi	sp,sp,-64
   10e90:	f426                	sd	s1,40(sp)
   10e92:	f04a                	sd	s2,32(sp)
   10e94:	fc06                	sd	ra,56(sp)
   10e96:	f822                	sd	s0,48(sp)
   10e98:	ec4e                	sd	s3,24(sp)
   10e9a:	05000793          	li	a5,80
   10e9e:	8932                	mv	s2,a2
   10ea0:	84b6                	mv	s1,a3
   10ea2:	00f51f63          	bne	a0,a5,10ec0 <_ZL28read_encoded_value_with_basehmPKhPm+0x32>
   10ea6:	00760513          	addi	a0,a2,7
   10eaa:	9961                	andi	a0,a0,-8
   10eac:	611c                	ld	a5,0(a0)
   10eae:	0521                	addi	a0,a0,8
   10eb0:	70e2                	ld	ra,56(sp)
   10eb2:	7442                	ld	s0,48(sp)
   10eb4:	e09c                	sd	a5,0(s1)
   10eb6:	7902                	ld	s2,32(sp)
   10eb8:	74a2                	ld	s1,40(sp)
   10eba:	69e2                	ld	s3,24(sp)
   10ebc:	6121                	addi	sp,sp,64
   10ebe:	8082                	ret
   10ec0:	00f57793          	andi	a5,a0,15
   10ec4:	4731                	li	a4,12
   10ec6:	89aa                	mv	s3,a0
   10ec8:	0ef76b63          	bltu	a4,a5,10fbe <_ZL28read_encoded_value_with_basehmPKhPm+0x130>
   10ecc:	0002c737          	lui	a4,0x2c
   10ed0:	078a                	slli	a5,a5,0x2
   10ed2:	fd870713          	addi	a4,a4,-40 # 2bfd8 <__clzdi2+0x1d08>
   10ed6:	97ba                	add	a5,a5,a4
   10ed8:	439c                	lw	a5,0(a5)
   10eda:	842e                	mv	s0,a1
   10edc:	8782                	jr	a5
   10ede:	002c                	addi	a1,sp,8
   10ee0:	8532                	mv	a0,a2
   10ee2:	f0bff0ef          	jal	10dec <_ZL12read_uleb128PKhPm>
   10ee6:	67a2                	ld	a5,8(sp)
   10ee8:	d7e1                	beqz	a5,10eb0 <_ZL28read_encoded_value_with_basehmPKhPm+0x22>
   10eea:	0709f713          	andi	a4,s3,112
   10eee:	46c1                	li	a3,16
   10ef0:	00d71363          	bne	a4,a3,10ef6 <_ZL28read_encoded_value_with_basehmPKhPm+0x68>
   10ef4:	844a                	mv	s0,s2
   10ef6:	0189999b          	slliw	s3,s3,0x18
   10efa:	4189d99b          	sraiw	s3,s3,0x18
   10efe:	97a2                	add	a5,a5,s0
   10f00:	fa09d8e3          	bgez	s3,10eb0 <_ZL28read_encoded_value_with_basehmPKhPm+0x22>
   10f04:	639c                	ld	a5,0(a5)
   10f06:	b76d                	j	10eb0 <_ZL28read_encoded_value_with_basehmPKhPm+0x22>
   10f08:	002c                	addi	a1,sp,8
   10f0a:	8532                	mv	a0,a2
   10f0c:	f07ff0ef          	jal	10e12 <_ZL12read_sleb128PKhPl>
   10f10:	bfd9                	j	10ee6 <_ZL28read_encoded_value_with_basehmPKhPm+0x58>
   10f12:	00164783          	lbu	a5,1(a2)
   10f16:	00064703          	lbu	a4,0(a2)
   10f1a:	07a2                	slli	a5,a5,0x8
   10f1c:	8fd9                	or	a5,a5,a4
   10f1e:	00290513          	addi	a0,s2,2
   10f22:	b7d9                	j	10ee8 <_ZL28read_encoded_value_with_basehmPKhPm+0x5a>
   10f24:	00164783          	lbu	a5,1(a2)
   10f28:	00064703          	lbu	a4,0(a2)
   10f2c:	07a2                	slli	a5,a5,0x8
   10f2e:	8fd9                	or	a5,a5,a4
   10f30:	00264703          	lbu	a4,2(a2)
   10f34:	0742                	slli	a4,a4,0x10
   10f36:	8f5d                	or	a4,a4,a5
   10f38:	00364783          	lbu	a5,3(a2)
   10f3c:	07e2                	slli	a5,a5,0x18
   10f3e:	8fd9                	or	a5,a5,a4
   10f40:	00490513          	addi	a0,s2,4
   10f44:	b755                	j	10ee8 <_ZL28read_encoded_value_with_basehmPKhPm+0x5a>
   10f46:	00164783          	lbu	a5,1(a2)
   10f4a:	00064703          	lbu	a4,0(a2)
   10f4e:	07a2                	slli	a5,a5,0x8
   10f50:	8fd9                	or	a5,a5,a4
   10f52:	0107979b          	slliw	a5,a5,0x10
   10f56:	4107d79b          	sraiw	a5,a5,0x10
   10f5a:	b7d1                	j	10f1e <_ZL28read_encoded_value_with_basehmPKhPm+0x90>
   10f5c:	00164783          	lbu	a5,1(a2)
   10f60:	00064703          	lbu	a4,0(a2)
   10f64:	07a2                	slli	a5,a5,0x8
   10f66:	8fd9                	or	a5,a5,a4
   10f68:	00264703          	lbu	a4,2(a2)
   10f6c:	0742                	slli	a4,a4,0x10
   10f6e:	8f5d                	or	a4,a4,a5
   10f70:	00364783          	lbu	a5,3(a2)
   10f74:	07e2                	slli	a5,a5,0x18
   10f76:	8fd9                	or	a5,a5,a4
   10f78:	2781                	sext.w	a5,a5
   10f7a:	b7d9                	j	10f40 <_ZL28read_encoded_value_with_basehmPKhPm+0xb2>
   10f7c:	00164783          	lbu	a5,1(a2)
   10f80:	00064703          	lbu	a4,0(a2)
   10f84:	00860513          	addi	a0,a2,8
   10f88:	07a2                	slli	a5,a5,0x8
   10f8a:	8fd9                	or	a5,a5,a4
   10f8c:	00264703          	lbu	a4,2(a2)
   10f90:	0742                	slli	a4,a4,0x10
   10f92:	8f5d                	or	a4,a4,a5
   10f94:	00364783          	lbu	a5,3(a2)
   10f98:	07e2                	slli	a5,a5,0x18
   10f9a:	8fd9                	or	a5,a5,a4
   10f9c:	00464703          	lbu	a4,4(a2)
   10fa0:	1702                	slli	a4,a4,0x20
   10fa2:	8f5d                	or	a4,a4,a5
   10fa4:	00564783          	lbu	a5,5(a2)
   10fa8:	17a2                	slli	a5,a5,0x28
   10faa:	8fd9                	or	a5,a5,a4
   10fac:	00664703          	lbu	a4,6(a2)
   10fb0:	1742                	slli	a4,a4,0x30
   10fb2:	8f5d                	or	a4,a4,a5
   10fb4:	00764783          	lbu	a5,7(a2)
   10fb8:	17e2                	slli	a5,a5,0x38
   10fba:	8fd9                	or	a5,a5,a4
   10fbc:	b735                	j	10ee8 <_ZL28read_encoded_value_with_basehmPKhPm+0x5a>
   10fbe:	44c0d0ef          	jal	1e40a <abort>

0000000000010fc2 <_ZL15get_ttype_entryP16lsda_header_infom>:
   10fc2:	1101                	addi	sp,sp,-32
   10fc4:	ec06                	sd	ra,24(sp)
   10fc6:	02854703          	lbu	a4,40(a0)
   10fca:	0ff00793          	li	a5,255
   10fce:	04f70363          	beq	a4,a5,11014 <_ZL15get_ttype_entryP16lsda_header_infom+0x52>
   10fd2:	00777793          	andi	a5,a4,7
   10fd6:	4689                	li	a3,2
   10fd8:	04d78063          	beq	a5,a3,11018 <_ZL15get_ttype_entryP16lsda_header_infom+0x56>
   10fdc:	00f6e663          	bltu	a3,a5,10fe8 <_ZL15get_ttype_entryP16lsda_header_infom+0x26>
   10fe0:	4621                	li	a2,8
   10fe2:	cb99                	beqz	a5,10ff8 <_ZL15get_ttype_entryP16lsda_header_infom+0x36>
   10fe4:	4260d0ef          	jal	1e40a <abort>
   10fe8:	4611                	li	a2,4
   10fea:	480d                	li	a6,3
   10fec:	86b2                	mv	a3,a2
   10fee:	01078563          	beq	a5,a6,10ff8 <_ZL15get_ttype_entryP16lsda_header_infom+0x36>
   10ff2:	4621                	li	a2,8
   10ff4:	fed798e3          	bne	a5,a3,10fe4 <_ZL15get_ttype_entryP16lsda_header_infom+0x22>
   10ff8:	02b60633          	mul	a2,a2,a1
   10ffc:	6d1c                	ld	a5,24(a0)
   10ffe:	690c                	ld	a1,16(a0)
   11000:	0034                	addi	a3,sp,8
   11002:	853a                	mv	a0,a4
   11004:	40c78633          	sub	a2,a5,a2
   11008:	e87ff0ef          	jal	10e8e <_ZL28read_encoded_value_with_basehmPKhPm>
   1100c:	60e2                	ld	ra,24(sp)
   1100e:	6522                	ld	a0,8(sp)
   11010:	6105                	addi	sp,sp,32
   11012:	8082                	ret
   11014:	4601                	li	a2,0
   11016:	b7cd                	j	10ff8 <_ZL15get_ttype_entryP16lsda_header_infom+0x36>
   11018:	863e                	mv	a2,a5
   1101a:	bff9                	j	10ff8 <_ZL15get_ttype_entryP16lsda_header_infom+0x36>

000000000001101c <_ZL20check_exception_specP16lsda_header_infoPKSt9type_infoPvl>:
   1101c:	7139                	addi	sp,sp,-64
   1101e:	f822                	sd	s0,48(sp)
   11020:	6d00                	ld	s0,24(a0)
   11022:	fff6c693          	not	a3,a3
   11026:	f426                	sd	s1,40(sp)
   11028:	f04a                	sd	s2,32(sp)
   1102a:	fc06                	sd	ra,56(sp)
   1102c:	84aa                	mv	s1,a0
   1102e:	892e                	mv	s2,a1
   11030:	e432                	sd	a2,8(sp)
   11032:	9436                	add	s0,s0,a3
   11034:	082c                	addi	a1,sp,24
   11036:	8522                	mv	a0,s0
   11038:	db5ff0ef          	jal	10dec <_ZL12read_uleb128PKhPm>
   1103c:	65e2                	ld	a1,24(sp)
   1103e:	842a                	mv	s0,a0
   11040:	cd99                	beqz	a1,1105e <_ZL20check_exception_specP16lsda_header_infoPKSt9type_infoPvl+0x42>
   11042:	8526                	mv	a0,s1
   11044:	f7fff0ef          	jal	10fc2 <_ZL15get_ttype_entryP16lsda_header_infom>
   11048:	0030                	addi	a2,sp,8
   1104a:	85ca                	mv	a1,s2
   1104c:	e03ff0ef          	jal	10e4e <_ZL16get_adjusted_ptrPKSt9type_infoS1_PPv>
   11050:	d175                	beqz	a0,11034 <_ZL20check_exception_specP16lsda_header_infoPKSt9type_infoPvl+0x18>
   11052:	70e2                	ld	ra,56(sp)
   11054:	7442                	ld	s0,48(sp)
   11056:	74a2                	ld	s1,40(sp)
   11058:	7902                	ld	s2,32(sp)
   1105a:	6121                	addi	sp,sp,64
   1105c:	8082                	ret
   1105e:	4501                	li	a0,0
   11060:	bfcd                	j	11052 <_ZL20check_exception_specP16lsda_header_infoPKSt9type_infoPvl+0x36>

0000000000011062 <_ZL21base_of_encoded_valuehP15_Unwind_Context>:
   11062:	0ff00713          	li	a4,255
   11066:	87aa                	mv	a5,a0
   11068:	02e50d63          	beq	a0,a4,110a2 <_ZL21base_of_encoded_valuehP15_Unwind_Context+0x40>
   1106c:	0707f793          	andi	a5,a5,112
   11070:	03000713          	li	a4,48
   11074:	852e                	mv	a0,a1
   11076:	02e78a63          	beq	a5,a4,110aa <_ZL21base_of_encoded_valuehP15_Unwind_Context+0x48>
   1107a:	00f76c63          	bltu	a4,a5,11092 <_ZL21base_of_encoded_valuehP15_Unwind_Context+0x30>
   1107e:	02000713          	li	a4,32
   11082:	02e78263          	beq	a5,a4,110a6 <_ZL21base_of_encoded_valuehP15_Unwind_Context+0x44>
   11086:	00f77e63          	bgeu	a4,a5,110a2 <_ZL21base_of_encoded_valuehP15_Unwind_Context+0x40>
   1108a:	1141                	addi	sp,sp,-16
   1108c:	e406                	sd	ra,8(sp)
   1108e:	37c0d0ef          	jal	1e40a <abort>
   11092:	04000713          	li	a4,64
   11096:	00e78c63          	beq	a5,a4,110ae <_ZL21base_of_encoded_valuehP15_Unwind_Context+0x4c>
   1109a:	05000713          	li	a4,80
   1109e:	fee796e3          	bne	a5,a4,1108a <_ZL21base_of_encoded_valuehP15_Unwind_Context+0x28>
   110a2:	4501                	li	a0,0
   110a4:	8082                	ret
   110a6:	2990b06f          	j	1cb3e <_Unwind_GetTextRelBase>
   110aa:	28f0b06f          	j	1cb38 <_Unwind_GetDataRelBase>
   110ae:	26f0b06f          	j	1cb1c <_Unwind_GetRegionStart>

00000000000110b2 <_ZL18read_encoded_valueP15_Unwind_ContexthPKhPm>:
   110b2:	1101                	addi	sp,sp,-32
   110b4:	e822                	sd	s0,16(sp)
   110b6:	842e                	mv	s0,a1
   110b8:	85aa                	mv	a1,a0
   110ba:	8522                	mv	a0,s0
   110bc:	ec06                	sd	ra,24(sp)
   110be:	e432                	sd	a2,8(sp)
   110c0:	e036                	sd	a3,0(sp)
   110c2:	fa1ff0ef          	jal	11062 <_ZL21base_of_encoded_valuehP15_Unwind_Context>
   110c6:	85aa                	mv	a1,a0
   110c8:	8522                	mv	a0,s0
   110ca:	6442                	ld	s0,16(sp)
   110cc:	6682                	ld	a3,0(sp)
   110ce:	6622                	ld	a2,8(sp)
   110d0:	60e2                	ld	ra,24(sp)
   110d2:	6105                	addi	sp,sp,32
   110d4:	bb6d                	j	10e8e <_ZL28read_encoded_value_with_basehmPKhPm>

00000000000110d6 <_ZL17parse_lsda_headerP15_Unwind_ContextPKhP16lsda_header_info>:
   110d6:	7139                	addi	sp,sp,-64
   110d8:	f822                	sd	s0,48(sp)
   110da:	f426                	sd	s1,40(sp)
   110dc:	fc06                	sd	ra,56(sp)
   110de:	84aa                	mv	s1,a0
   110e0:	8432                	mv	s0,a2
   110e2:	4781                	li	a5,0
   110e4:	c511                	beqz	a0,110f0 <_ZL17parse_lsda_headerP15_Unwind_ContextPKhP16lsda_header_info+0x1a>
   110e6:	e42e                	sd	a1,8(sp)
   110e8:	2350b0ef          	jal	1cb1c <_Unwind_GetRegionStart>
   110ec:	65a2                	ld	a1,8(sp)
   110ee:	87aa                	mv	a5,a0
   110f0:	e01c                	sd	a5,0(s0)
   110f2:	00158613          	addi	a2,a1,1
   110f6:	0005c583          	lbu	a1,0(a1)
   110fa:	0ff00713          	li	a4,255
   110fe:	04e58963          	beq	a1,a4,11150 <_ZL17parse_lsda_headerP15_Unwind_ContextPKhP16lsda_header_info+0x7a>
   11102:	00840693          	addi	a3,s0,8
   11106:	8526                	mv	a0,s1
   11108:	fabff0ef          	jal	110b2 <_ZL18read_encoded_valueP15_Unwind_ContexthPKhPm>
   1110c:	862a                	mv	a2,a0
   1110e:	00064703          	lbu	a4,0(a2)
   11112:	0ff00693          	li	a3,255
   11116:	00160513          	addi	a0,a2,1
   1111a:	02e40423          	sb	a4,40(s0)
   1111e:	4781                	li	a5,0
   11120:	00d70763          	beq	a4,a3,1112e <_ZL17parse_lsda_headerP15_Unwind_ContextPKhP16lsda_header_info+0x58>
   11124:	082c                	addi	a1,sp,24
   11126:	cc7ff0ef          	jal	10dec <_ZL12read_uleb128PKhPm>
   1112a:	67e2                	ld	a5,24(sp)
   1112c:	97aa                	add	a5,a5,a0
   1112e:	ec1c                	sd	a5,24(s0)
   11130:	00054783          	lbu	a5,0(a0)
   11134:	082c                	addi	a1,sp,24
   11136:	0505                	addi	a0,a0,1
   11138:	02f404a3          	sb	a5,41(s0)
   1113c:	cb1ff0ef          	jal	10dec <_ZL12read_uleb128PKhPm>
   11140:	67e2                	ld	a5,24(sp)
   11142:	70e2                	ld	ra,56(sp)
   11144:	74a2                	ld	s1,40(sp)
   11146:	97aa                	add	a5,a5,a0
   11148:	f01c                	sd	a5,32(s0)
   1114a:	7442                	ld	s0,48(sp)
   1114c:	6121                	addi	sp,sp,64
   1114e:	8082                	ret
   11150:	e41c                	sd	a5,8(s0)
   11152:	bf75                	j	1110e <_ZL17parse_lsda_headerP15_Unwind_ContextPKhP16lsda_header_info+0x38>

0000000000011154 <__gxx_personality_v0>:
   11154:	7115                	addi	sp,sp,-224
   11156:	ed86                	sd	ra,216(sp)
   11158:	e9a2                	sd	s0,208(sp)
   1115a:	e5a6                	sd	s1,200(sp)
   1115c:	e1ca                	sd	s2,192(sp)
   1115e:	fd4e                	sd	s3,184(sp)
   11160:	f952                	sd	s4,176(sp)
   11162:	f556                	sd	s5,168(sp)
   11164:	f15a                	sd	s6,160(sp)
   11166:	ed5e                	sd	s7,152(sp)
   11168:	e962                	sd	s8,144(sp)
   1116a:	e566                	sd	s9,136(sp)
   1116c:	e16a                	sd	s10,128(sp)
   1116e:	fcee                	sd	s11,120(sp)
   11170:	ec02                	sd	zero,24(sp)
   11172:	ca02                	sw	zero,20(sp)
   11174:	4785                	li	a5,1
   11176:	26f51f63          	bne	a0,a5,113f4 <__gxx_personality_v0+0x2a0>
   1117a:	b8b1b7b7          	lui	a5,0xb8b1b
   1117e:	abd78793          	addi	a5,a5,-1347 # ffffffffb8b1aabd <__BSS_END__+0xffffffffb8ae0025>
   11182:	07b2                	slli	a5,a5,0xc
   11184:	bcd78793          	addi	a5,a5,-1075
   11188:	07b2                	slli	a5,a5,0xc
   1118a:	4d578793          	addi	a5,a5,1237
   1118e:	07a2                	slli	a5,a5,0x8
   11190:	00f60bb3          	add	s7,a2,a5
   11194:	ffa58c13          	addi	s8,a1,-6
   11198:	002bb493          	sltiu	s1,s7,2
   1119c:	001c3c13          	seqz	s8,s8
   111a0:	e03a                	sd	a4,0(sp)
   111a2:	0184fc33          	and	s8,s1,s8
   111a6:	8436                	mv	s0,a3
   111a8:	8b2e                	mv	s6,a1
   111aa:	000c0963          	beqz	s8,111bc <__gxx_personality_v0+0x68>
   111ae:	ff06b983          	ld	s3,-16(a3)
   111b2:	22099b63          	bnez	s3,113e8 <__gxx_personality_v0+0x294>
   111b6:	8522                	mv	a0,s0
   111b8:	84cff0ef          	jal	10204 <__cxa_call_terminate>
   111bc:	6502                	ld	a0,0(sp)
   111be:	1590b0ef          	jal	1cb16 <_Unwind_GetLanguageSpecificData>
   111c2:	8caa                	mv	s9,a0
   111c4:	c169                	beqz	a0,11286 <__gxx_personality_v0+0x132>
   111c6:	85aa                	mv	a1,a0
   111c8:	6502                	ld	a0,0(sp)
   111ca:	0090                	addi	a2,sp,64
   111cc:	06010423          	sb	zero,104(sp)
   111d0:	f07ff0ef          	jal	110d6 <_ZL17parse_lsda_headerP15_Unwind_ContextPKhP16lsda_header_info>
   111d4:	06814d03          	lbu	s10,104(sp)
   111d8:	6582                	ld	a1,0(sp)
   111da:	e42a                	sd	a0,8(sp)
   111dc:	856a                	mv	a0,s10
   111de:	e85ff0ef          	jal	11062 <_ZL21base_of_encoded_valuehP15_Unwind_Context>
   111e2:	e8aa                	sd	a0,80(sp)
   111e4:	6502                	ld	a0,0(sp)
   111e6:	084c                	addi	a1,sp,20
   111e8:	11b0b0ef          	jal	1cb02 <_Unwind_GetIPInfo>
   111ec:	47d2                	lw	a5,20(sp)
   111ee:	6622                	ld	a2,8(sp)
   111f0:	0017b793          	seqz	a5,a5
   111f4:	40f509b3          	sub	s3,a0,a5
   111f8:	7a86                	ld	s5,96(sp)
   111fa:	03566d63          	bltu	a2,s5,11234 <__gxx_personality_v0+0xe0>
   111fe:	4481                	li	s1,0
   11200:	4981                	li	s3,0
   11202:	4a81                	li	s5,0
   11204:	4785                	li	a5,1
   11206:	001b7713          	andi	a4,s6,1
   1120a:	16070663          	beqz	a4,11376 <__gxx_personality_v0+0x222>
   1120e:	4709                	li	a4,2
   11210:	06e78b63          	beq	a5,a4,11286 <__gxx_personality_v0+0x132>
   11214:	4785                	li	a5,1
   11216:	0177ed63          	bltu	a5,s7,11230 <__gxx_personality_v0+0xdc>
   1121a:	67e2                	ld	a5,24(sp)
   1121c:	fc942e23          	sw	s1,-36(s0)
   11220:	ff543023          	sd	s5,-32(s0)
   11224:	ff943423          	sd	s9,-24(s0)
   11228:	fef43c23          	sd	a5,-8(s0)
   1122c:	ff343823          	sd	s3,-16(s0)
   11230:	4519                	li	a0,6
   11232:	a899                	j	11288 <__gxx_personality_v0+0x134>
   11234:	06914583          	lbu	a1,105(sp)
   11238:	1014                	addi	a3,sp,32
   1123a:	4501                	li	a0,0
   1123c:	e42e                	sd	a1,8(sp)
   1123e:	e75ff0ef          	jal	110b2 <_ZL18read_encoded_valueP15_Unwind_ContexthPKhPm>
   11242:	65a2                	ld	a1,8(sp)
   11244:	862a                	mv	a2,a0
   11246:	1034                	addi	a3,sp,40
   11248:	4501                	li	a0,0
   1124a:	e69ff0ef          	jal	110b2 <_ZL18read_encoded_valueP15_Unwind_ContexthPKhPm>
   1124e:	65a2                	ld	a1,8(sp)
   11250:	862a                	mv	a2,a0
   11252:	1814                	addi	a3,sp,48
   11254:	4501                	li	a0,0
   11256:	e5dff0ef          	jal	110b2 <_ZL18read_encoded_valueP15_Unwind_ContexthPKhPm>
   1125a:	182c                	addi	a1,sp,56
   1125c:	b91ff0ef          	jal	10dec <_ZL12read_uleb128PKhPm>
   11260:	6786                	ld	a5,64(sp)
   11262:	7702                	ld	a4,32(sp)
   11264:	862a                	mv	a2,a0
   11266:	97ba                	add	a5,a5,a4
   11268:	04f9e563          	bltu	s3,a5,112b2 <__gxx_personality_v0+0x15e>
   1126c:	7722                	ld	a4,40(sp)
   1126e:	97ba                	add	a5,a5,a4
   11270:	f8f9f4e3          	bgeu	s3,a5,111f8 <__gxx_personality_v0+0xa4>
   11274:	79c2                	ld	s3,48(sp)
   11276:	00098463          	beqz	s3,1127e <__gxx_personality_v0+0x12a>
   1127a:	67a6                	ld	a5,72(sp)
   1127c:	99be                	add	s3,s3,a5
   1127e:	77e2                	ld	a5,56(sp)
   11280:	c39d                	beqz	a5,112a6 <__gxx_personality_v0+0x152>
   11282:	02099a63          	bnez	s3,112b6 <__gxx_personality_v0+0x162>
   11286:	4521                	li	a0,8
   11288:	60ee                	ld	ra,216(sp)
   1128a:	644e                	ld	s0,208(sp)
   1128c:	64ae                	ld	s1,200(sp)
   1128e:	690e                	ld	s2,192(sp)
   11290:	79ea                	ld	s3,184(sp)
   11292:	7a4a                	ld	s4,176(sp)
   11294:	7aaa                	ld	s5,168(sp)
   11296:	7b0a                	ld	s6,160(sp)
   11298:	6bea                	ld	s7,152(sp)
   1129a:	6c4a                	ld	s8,144(sp)
   1129c:	6caa                	ld	s9,136(sp)
   1129e:	6d0a                	ld	s10,128(sp)
   112a0:	7de6                	ld	s11,120(sp)
   112a2:	612d                	addi	sp,sp,224
   112a4:	8082                	ret
   112a6:	fe0980e3          	beqz	s3,11286 <__gxx_personality_v0+0x132>
   112aa:	4481                	li	s1,0
   112ac:	4a81                	li	s5,0
   112ae:	4789                	li	a5,2
   112b0:	bf99                	j	11206 <__gxx_personality_v0+0xb2>
   112b2:	8656                	mv	a2,s5
   112b4:	b791                	j	111f8 <__gxx_personality_v0+0xa4>
   112b6:	17fd                	addi	a5,a5,-1
   112b8:	9abe                	add	s5,s5,a5
   112ba:	008b7793          	andi	a5,s6,8
   112be:	e7ad                	bnez	a5,11328 <__gxx_personality_v0+0x1d4>
   112c0:	4705                	li	a4,1
   112c2:	07776863          	bltu	a4,s7,11332 <__gxx_personality_v0+0x1de>
   112c6:	6014                	ld	a3,0(s0)
   112c8:	8ef9                	and	a3,a3,a4
   112ca:	02040713          	addi	a4,s0,32
   112ce:	c299                	beqz	a3,112d4 <__gxx_personality_v0+0x180>
   112d0:	fb043703          	ld	a4,-80(s0)
   112d4:	f9073a03          	ld	s4,-112(a4)
   112d8:	ec3a                	sd	a4,24(sp)
   112da:	0017b793          	seqz	a5,a5
   112de:	8cfd                	and	s1,s1,a5
   112e0:	014037b3          	snez	a5,s4
   112e4:	0097f933          	and	s2,a5,s1
   112e8:	4d89                	li	s11,2
   112ea:	102c                	addi	a1,sp,40
   112ec:	8556                	mv	a0,s5
   112ee:	b25ff0ef          	jal	10e12 <_ZL12read_sleb128PKhPl>
   112f2:	180c                	addi	a1,sp,48
   112f4:	e42a                	sd	a0,8(sp)
   112f6:	b1dff0ef          	jal	10e12 <_ZL12read_sleb128PKhPl>
   112fa:	74a2                	ld	s1,40(sp)
   112fc:	c8bd                	beqz	s1,11372 <__gxx_personality_v0+0x21e>
   112fe:	05bb0a63          	beq	s6,s11,11352 <__gxx_personality_v0+0x1fe>
   11302:	02905d63          	blez	s1,1133c <__gxx_personality_v0+0x1e8>
   11306:	85a6                	mv	a1,s1
   11308:	0088                	addi	a0,sp,64
   1130a:	07a10423          	sb	s10,104(sp)
   1130e:	cb5ff0ef          	jal	10fc2 <_ZL15get_ttype_entryP16lsda_header_infom>
   11312:	c901                	beqz	a0,11322 <__gxx_personality_v0+0x1ce>
   11314:	020a0f63          	beqz	s4,11352 <__gxx_personality_v0+0x1fe>
   11318:	0830                	addi	a2,sp,24
   1131a:	85d2                	mv	a1,s4
   1131c:	b33ff0ef          	jal	10e4e <_ZL16get_adjusted_ptrPKSt9type_infoS1_PPv>
   11320:	c90d                	beqz	a0,11352 <__gxx_personality_v0+0x1fe>
   11322:	2481                	sext.w	s1,s1
   11324:	478d                	li	a5,3
   11326:	b5c5                	j	11206 <__gxx_personality_v0+0xb2>
   11328:	0002da37          	lui	s4,0x2d
   1132c:	1e0a0a13          	addi	s4,s4,480 # 2d1e0 <_ZTIN10__cxxabiv115__forced_unwindE>
   11330:	b76d                	j	112da <__gxx_personality_v0+0x186>
   11332:	0002da37          	lui	s4,0x2d
   11336:	218a0a13          	addi	s4,s4,536 # 2d218 <_ZTIN10__cxxabiv119__foreign_exceptionE>
   1133a:	b745                	j	112da <__gxx_personality_v0+0x186>
   1133c:	02090163          	beqz	s2,1135e <__gxx_personality_v0+0x20a>
   11340:	6662                	ld	a2,24(sp)
   11342:	86a6                	mv	a3,s1
   11344:	85d2                	mv	a1,s4
   11346:	0088                	addi	a0,sp,64
   11348:	07a10423          	sb	s10,104(sp)
   1134c:	cd1ff0ef          	jal	1101c <_ZL20check_exception_specP16lsda_header_infoPKSt9type_infoPvl>
   11350:	d969                	beqz	a0,11322 <__gxx_personality_v0+0x1ce>
   11352:	77c2                	ld	a5,48(sp)
   11354:	c3d5                	beqz	a5,113f8 <__gxx_personality_v0+0x2a4>
   11356:	6722                	ld	a4,8(sp)
   11358:	00f70ab3          	add	s5,a4,a5
   1135c:	b779                	j	112ea <__gxx_personality_v0+0x196>
   1135e:	67e6                	ld	a5,88(sp)
   11360:	fff4c513          	not	a0,s1
   11364:	182c                	addi	a1,sp,56
   11366:	953e                	add	a0,a0,a5
   11368:	a85ff0ef          	jal	10dec <_ZL12read_uleb128PKhPm>
   1136c:	77e2                	ld	a5,56(sp)
   1136e:	f3f5                	bnez	a5,11352 <__gxx_personality_v0+0x1fe>
   11370:	bf4d                	j	11322 <__gxx_personality_v0+0x1ce>
   11372:	4c05                	li	s8,1
   11374:	bff9                	j	11352 <__gxx_personality_v0+0x1fe>
   11376:	008b7b13          	andi	s6,s6,8
   1137a:	4705                	li	a4,1
   1137c:	000b1463          	bnez	s6,11384 <__gxx_personality_v0+0x230>
   11380:	01777d63          	bgeu	a4,s7,1139a <__gxx_personality_v0+0x246>
   11384:	00e79463          	bne	a5,a4,1138c <__gxx_personality_v0+0x238>
   11388:	d99fe0ef          	jal	10120 <_ZSt9terminatev>
   1138c:	0204de63          	bgez	s1,113c8 <__gxx_personality_v0+0x274>
   11390:	d9dfe0ef          	jal	1012c <_ZSt10unexpectedv>
   11394:	430060ef          	jal	177c4 <__cxa_begin_catch>
   11398:	bfc5                	j	11388 <__gxx_personality_v0+0x234>
   1139a:	e0e78ee3          	beq	a5,a4,111b6 <__gxx_personality_v0+0x62>
   1139e:	0204d563          	bgez	s1,113c8 <__gxx_personality_v0+0x274>
   113a2:	6502                	ld	a0,0(sp)
   113a4:	0090                	addi	a2,sp,64
   113a6:	85e6                	mv	a1,s9
   113a8:	07a10423          	sb	s10,104(sp)
   113ac:	d2bff0ef          	jal	110d6 <_ZL17parse_lsda_headerP15_Unwind_ContextPKhP16lsda_header_info>
   113b0:	06814a03          	lbu	s4,104(sp)
   113b4:	6582                	ld	a1,0(sp)
   113b6:	8552                	mv	a0,s4
   113b8:	cabff0ef          	jal	11062 <_ZL21base_of_encoded_valuehP15_Unwind_Context>
   113bc:	6582                	ld	a1,0(sp)
   113be:	8552                	mv	a0,s4
   113c0:	ca3ff0ef          	jal	11062 <_ZL21base_of_encoded_valuehP15_Unwind_Context>
   113c4:	fea43823          	sd	a0,-16(s0)
   113c8:	6502                	ld	a0,0(sp)
   113ca:	8622                	mv	a2,s0
   113cc:	45a9                	li	a1,10
   113ce:	6d60b0ef          	jal	1caa4 <_Unwind_SetGR>
   113d2:	6502                	ld	a0,0(sp)
   113d4:	8626                	mv	a2,s1
   113d6:	45ad                	li	a1,11
   113d8:	6cc0b0ef          	jal	1caa4 <_Unwind_SetGR>
   113dc:	6502                	ld	a0,0(sp)
   113de:	85ce                	mv	a1,s3
   113e0:	7300b0ef          	jal	1cb10 <_Unwind_SetIP>
   113e4:	451d                	li	a0,7
   113e6:	b54d                	j	11288 <__gxx_personality_v0+0x134>
   113e8:	fdc6a483          	lw	s1,-36(a3)
   113ec:	fe86bc83          	ld	s9,-24(a3)
   113f0:	4d01                	li	s10,0
   113f2:	b775                	j	1139e <__gxx_personality_v0+0x24a>
   113f4:	450d                	li	a0,3
   113f6:	bd49                	j	11288 <__gxx_personality_v0+0x134>
   113f8:	4481                	li	s1,0
   113fa:	ea0c1ae3          	bnez	s8,112ae <__gxx_personality_v0+0x15a>
   113fe:	b561                	j	11286 <__gxx_personality_v0+0x132>

0000000000011400 <__cxa_call_unexpected>:
   11400:	7159                	addi	sp,sp,-112
   11402:	f0a2                	sd	s0,96(sp)
   11404:	eca6                	sd	s1,88(sp)
   11406:	842a                	mv	s0,a0
   11408:	e8ca                	sd	s2,80(sp)
   1140a:	e4ce                	sd	s3,72(sp)
   1140c:	f486                	sd	ra,104(sp)
   1140e:	3b6060ef          	jal	177c4 <__cxa_begin_catch>
   11412:	ff043783          	ld	a5,-16(s0)
   11416:	fc043503          	ld	a0,-64(s0)
   1141a:	fe843983          	ld	s3,-24(s0)
   1141e:	fdc42483          	lw	s1,-36(s0)
   11422:	fc843903          	ld	s2,-56(s0)
   11426:	f03e                	sd	a5,32(sp)
   11428:	0b0000ef          	jal	114d8 <_ZN10__cxxabiv112__unexpectedEPFvvE>
   1142c:	398060ef          	jal	177c4 <__cxa_begin_catch>
   11430:	4c0060ef          	jal	178f0 <__cxa_get_globals_fast>
   11434:	611c                	ld	a5,0(a0)
   11436:	6bb8                	ld	a4,80(a5)
   11438:	07078413          	addi	s0,a5,112
   1143c:	8b05                	andi	a4,a4,1
   1143e:	c311                	beqz	a4,11442 <__cxa_call_unexpected+0x42>
   11440:	6380                	ld	s0,0(a5)
   11442:	0810                	addi	a2,sp,16
   11444:	85ce                	mv	a1,s3
   11446:	4501                	li	a0,0
   11448:	c8fff0ef          	jal	110d6 <_ZL17parse_lsda_headerP15_Unwind_ContextPKhP16lsda_header_info>
   1144c:	f9043583          	ld	a1,-112(s0)
   11450:	86a6                	mv	a3,s1
   11452:	8622                	mv	a2,s0
   11454:	0808                	addi	a0,sp,16
   11456:	bc7ff0ef          	jal	1101c <_ZL20check_exception_specP16lsda_header_infoPKSt9type_infoPvl>
   1145a:	c919                	beqz	a0,11470 <__cxa_call_unexpected+0x70>
   1145c:	16c000ef          	jal	115c8 <__cxa_rethrow>
   11460:	e42a                	sd	a0,8(sp)
   11462:	3d0060ef          	jal	17832 <__cxa_end_catch>
   11466:	3cc060ef          	jal	17832 <__cxa_end_catch>
   1146a:	6522                	ld	a0,8(sp)
   1146c:	3d90b0ef          	jal	1d044 <_Unwind_Resume>
   11470:	0002d437          	lui	s0,0x2d
   11474:	86a6                	mv	a3,s1
   11476:	4601                	li	a2,0
   11478:	1a840593          	addi	a1,s0,424 # 2d1a8 <_ZTISt13bad_exception>
   1147c:	0808                	addi	a0,sp,16
   1147e:	b9fff0ef          	jal	1101c <_ZL20check_exception_specP16lsda_header_infoPKSt9type_infoPvl>
   11482:	c105                	beqz	a0,114a2 <__cxa_call_unexpected+0xa2>
   11484:	4521                	li	a0,8
   11486:	21e060ef          	jal	176a4 <__cxa_allocate_exception>
   1148a:	0002d7b7          	lui	a5,0x2d
   1148e:	26078793          	addi	a5,a5,608 # 2d260 <_ZTVSt13bad_exception+0x10>
   11492:	6661                	lui	a2,0x18
   11494:	e11c                	sd	a5,0(a0)
   11496:	8c260613          	addi	a2,a2,-1854 # 178c2 <_ZNSt13bad_exceptionD1Ev>
   1149a:	1a840593          	addi	a1,s0,424
   1149e:	0f2000ef          	jal	11590 <__cxa_throw>
   114a2:	854a                	mv	a0,s2
   114a4:	004000ef          	jal	114a8 <_ZN10__cxxabiv111__terminateEPFvvE>

00000000000114a8 <_ZN10__cxxabiv111__terminateEPFvvE>:
   114a8:	1141                	addi	sp,sp,-16
   114aa:	e406                	sd	ra,8(sp)
   114ac:	9502                	jalr	a0
   114ae:	75d0c0ef          	jal	1e40a <abort>
   114b2:	312060ef          	jal	177c4 <__cxa_begin_catch>
   114b6:	7550c0ef          	jal	1e40a <abort>

00000000000114ba <_ZSt13set_terminatePFvvE>:
   114ba:	e501                	bnez	a0,114c2 <_ZSt13set_terminatePFvvE+0x8>
   114bc:	6545                	lui	a0,0x11
   114be:	61e50513          	addi	a0,a0,1566 # 1161e <_ZN9__gnu_cxx27__verbose_terminate_handlerEv>
   114c2:	92818793          	addi	a5,gp,-1752 # 36370 <_ZN10__cxxabiv119__terminate_handlerE>
   114c6:	0ea7b52f          	amoswap.d.aqrl	a0,a0,(a5)
   114ca:	8082                	ret

00000000000114cc <_ZSt13get_terminatev>:
   114cc:	92818793          	addi	a5,gp,-1752 # 36370 <_ZN10__cxxabiv119__terminate_handlerE>
   114d0:	6388                	ld	a0,0(a5)
   114d2:	0230000f          	fence	r,rw
   114d6:	8082                	ret

00000000000114d8 <_ZN10__cxxabiv112__unexpectedEPFvvE>:
   114d8:	1141                	addi	sp,sp,-16
   114da:	e406                	sd	ra,8(sp)
   114dc:	9502                	jalr	a0
   114de:	c43fe0ef          	jal	10120 <_ZSt9terminatev>

00000000000114e2 <_ZSt14set_unexpectedPFvvE>:
   114e2:	e501                	bnez	a0,114ea <_ZSt14set_unexpectedPFvvE+0x8>
   114e4:	6541                	lui	a0,0x10
   114e6:	12050513          	addi	a0,a0,288 # 10120 <_ZSt9terminatev>
   114ea:	91018793          	addi	a5,gp,-1776 # 36358 <_ZN10__cxxabiv120__unexpected_handlerE>
   114ee:	0ea7b52f          	amoswap.d.aqrl	a0,a0,(a5)
   114f2:	8082                	ret

00000000000114f4 <_ZSt14get_unexpectedv>:
   114f4:	91018793          	addi	a5,gp,-1776 # 36358 <_ZN10__cxxabiv120__unexpected_handlerE>
   114f8:	6388                	ld	a0,0(a5)
   114fa:	0230000f          	fence	r,rw
   114fe:	8082                	ret

0000000000011500 <_ZL23__gxx_exception_cleanup19_Unwind_Reason_CodeP17_Unwind_Exception>:
   11500:	1101                	addi	sp,sp,-32
   11502:	ec06                	sd	ra,24(sp)
   11504:	4785                	li	a5,1
   11506:	00a7f663          	bgeu	a5,a0,11512 <_ZL23__gxx_exception_cleanup19_Unwind_Reason_CodeP17_Unwind_Exception+0x12>
   1150a:	fc85b503          	ld	a0,-56(a1)
   1150e:	f9bff0ef          	jal	114a8 <_ZN10__cxxabiv111__terminateEPFvvE>
   11512:	577d                	li	a4,-1
   11514:	fa058693          	addi	a3,a1,-96
   11518:	06e6a7af          	amoadd.w.aqrl	a5,a4,(a3)
   1151c:	9fb9                	addw	a5,a5,a4
   1151e:	ef89                	bnez	a5,11538 <_ZL23__gxx_exception_cleanup19_Unwind_Reason_CodeP17_Unwind_Exception+0x38>
   11520:	fb85b783          	ld	a5,-72(a1)
   11524:	02058513          	addi	a0,a1,32
   11528:	c781                	beqz	a5,11530 <_ZL23__gxx_exception_cleanup19_Unwind_Reason_CodeP17_Unwind_Exception+0x30>
   1152a:	e42a                	sd	a0,8(sp)
   1152c:	9782                	jalr	a5
   1152e:	6522                	ld	a0,8(sp)
   11530:	60e2                	ld	ra,24(sp)
   11532:	6105                	addi	sp,sp,32
   11534:	1aa0606f          	j	176de <__cxa_free_exception>
   11538:	60e2                	ld	ra,24(sp)
   1153a:	6105                	addi	sp,sp,32
   1153c:	8082                	ret

000000000001153e <__cxa_init_primary_exception>:
   1153e:	1141                	addi	sp,sp,-16
   11540:	e406                	sd	ra,8(sp)
   11542:	e022                	sd	s0,0(sp)
   11544:	f8b53823          	sd	a1,-112(a0)
   11548:	f8c53c23          	sd	a2,-104(a0)
   1154c:	f8052023          	sw	zero,-128(a0)
   11550:	842a                	mv	s0,a0
   11552:	fa3ff0ef          	jal	114f4 <_ZSt14get_unexpectedv>
   11556:	faa43023          	sd	a0,-96(s0)
   1155a:	f73ff0ef          	jal	114cc <_ZSt13get_terminatev>
   1155e:	474e57b7          	lui	a5,0x474e5
   11562:	432b3737          	lui	a4,0x432b3
   11566:	54378793          	addi	a5,a5,1347 # 474e5543 <__BSS_END__+0x474aaaab>
   1156a:	b0070713          	addi	a4,a4,-1280 # 432b2b00 <__BSS_END__+0x43278068>
   1156e:	1782                	slli	a5,a5,0x20
   11570:	97ba                	add	a5,a5,a4
   11572:	fef43023          	sd	a5,-32(s0)
   11576:	67c5                	lui	a5,0x11
   11578:	50078793          	addi	a5,a5,1280 # 11500 <_ZL23__gxx_exception_cleanup19_Unwind_Reason_CodeP17_Unwind_Exception>
   1157c:	faa43423          	sd	a0,-88(s0)
   11580:	60a2                	ld	ra,8(sp)
   11582:	fef43423          	sd	a5,-24(s0)
   11586:	f8040513          	addi	a0,s0,-128
   1158a:	6402                	ld	s0,0(sp)
   1158c:	0141                	addi	sp,sp,16
   1158e:	8082                	ret

0000000000011590 <__cxa_throw>:
   11590:	1101                	addi	sp,sp,-32
   11592:	ec06                	sd	ra,24(sp)
   11594:	e822                	sd	s0,16(sp)
   11596:	e42e                	sd	a1,8(sp)
   11598:	842a                	mv	s0,a0
   1159a:	e032                	sd	a2,0(sp)
   1159c:	35e060ef          	jal	178fa <__cxa_get_globals>
   115a0:	451c                	lw	a5,8(a0)
   115a2:	6602                	ld	a2,0(sp)
   115a4:	65a2                	ld	a1,8(sp)
   115a6:	2785                	addiw	a5,a5,1
   115a8:	c51c                	sw	a5,8(a0)
   115aa:	8522                	mv	a0,s0
   115ac:	f93ff0ef          	jal	1153e <__cxa_init_primary_exception>
   115b0:	4785                	li	a5,1
   115b2:	06050413          	addi	s0,a0,96
   115b6:	c11c                	sw	a5,0(a0)
   115b8:	8522                	mv	a0,s0
   115ba:	65c0b0ef          	jal	1cc16 <_Unwind_RaiseException>
   115be:	8522                	mv	a0,s0
   115c0:	204060ef          	jal	177c4 <__cxa_begin_catch>
   115c4:	b5dfe0ef          	jal	10120 <_ZSt9terminatev>

00000000000115c8 <__cxa_rethrow>:
   115c8:	1141                	addi	sp,sp,-16
   115ca:	e406                	sd	ra,8(sp)
   115cc:	e022                	sd	s0,0(sp)
   115ce:	32c060ef          	jal	178fa <__cxa_get_globals>
   115d2:	451c                	lw	a5,8(a0)
   115d4:	6118                	ld	a4,0(a0)
   115d6:	2785                	addiw	a5,a5,1
   115d8:	c51c                	sw	a5,8(a0)
   115da:	cb1d                	beqz	a4,11610 <__cxa_rethrow+0x48>
   115dc:	b8b1b7b7          	lui	a5,0xb8b1b
   115e0:	abd78793          	addi	a5,a5,-1347 # ffffffffb8b1aabd <__BSS_END__+0xffffffffb8ae0025>
   115e4:	07b2                	slli	a5,a5,0xc
   115e6:	bcd78793          	addi	a5,a5,-1075
   115ea:	6b34                	ld	a3,80(a4)
   115ec:	07b2                	slli	a5,a5,0xc
   115ee:	4d578793          	addi	a5,a5,1237
   115f2:	07a2                	slli	a5,a5,0x8
   115f4:	97b6                	add	a5,a5,a3
   115f6:	4685                	li	a3,1
   115f8:	00f6fe63          	bgeu	a3,a5,11614 <__cxa_rethrow+0x4c>
   115fc:	00053023          	sd	zero,0(a0)
   11600:	05070413          	addi	s0,a4,80
   11604:	8522                	mv	a0,s0
   11606:	3ad0b0ef          	jal	1d1b2 <_Unwind_Resume_or_Rethrow>
   1160a:	8522                	mv	a0,s0
   1160c:	1b8060ef          	jal	177c4 <__cxa_begin_catch>
   11610:	b11fe0ef          	jal	10120 <_ZSt9terminatev>
   11614:	571c                	lw	a5,40(a4)
   11616:	40f007bb          	negw	a5,a5
   1161a:	d71c                	sw	a5,40(a4)
   1161c:	b7d5                	j	11600 <__cxa_rethrow+0x38>

000000000001161e <_ZN9__gnu_cxx27__verbose_terminate_handlerEv>:
   1161e:	9601c703          	lbu	a4,-1696(gp) # 363a8 <_ZZN9__gnu_cxx27__verbose_terminate_handlerEvE11terminating>
   11622:	7139                	addi	sp,sp,-64
   11624:	f822                	sd	s0,48(sp)
   11626:	fc06                	sd	ra,56(sp)
   11628:	f426                	sd	s1,40(sp)
   1162a:	f04a                	sd	s2,32(sp)
   1162c:	cf01                	beqz	a4,11644 <_ZN9__gnu_cxx27__verbose_terminate_handlerEv+0x26>
   1162e:	9501b783          	ld	a5,-1712(gp) # 36398 <_impure_ptr>
   11632:	0002a537          	lui	a0,0x2a
   11636:	50050513          	addi	a0,a0,1280 # 2a500 <__clzdi2+0x230>
   1163a:	6f8c                	ld	a1,24(a5)
   1163c:	6f90d0ef          	jal	1f534 <fputs>
   11640:	5cb0c0ef          	jal	1e40a <abort>
   11644:	4705                	li	a4,1
   11646:	96e18023          	sb	a4,-1696(gp) # 363a8 <_ZZN9__gnu_cxx27__verbose_terminate_handlerEvE11terminating>
   1164a:	2ba060ef          	jal	17904 <__cxa_current_exception_type>
   1164e:	c559                	beqz	a0,116dc <_ZN9__gnu_cxx27__verbose_terminate_handlerEv+0xbe>
   11650:	6504                	ld	s1,8(a0)
   11652:	02a00793          	li	a5,42
   11656:	0004c703          	lbu	a4,0(s1)
   1165a:	00f71363          	bne	a4,a5,11660 <_ZN9__gnu_cxx27__verbose_terminate_handlerEv+0x42>
   1165e:	0485                	addi	s1,s1,1
   11660:	57fd                	li	a5,-1
   11662:	0874                	addi	a3,sp,28
   11664:	4601                	li	a2,0
   11666:	4581                	li	a1,0
   11668:	8526                	mv	a0,s1
   1166a:	ce3e                	sw	a5,28(sp)
   1166c:	691050ef          	jal	174fc <__cxa_demangle>
   11670:	9501b783          	ld	a5,-1712(gp) # 36398 <_impure_ptr>
   11674:	892a                	mv	s2,a0
   11676:	0002a537          	lui	a0,0x2a
   1167a:	6f8c                	ld	a1,24(a5)
   1167c:	52050513          	addi	a0,a0,1312 # 2a520 <__clzdi2+0x250>
   11680:	6b50d0ef          	jal	1f534 <fputs>
   11684:	9501b783          	ld	a5,-1712(gp) # 36398 <_impure_ptr>
   11688:	854a                	mv	a0,s2
   1168a:	6f8c                	ld	a1,24(a5)
   1168c:	47f2                	lw	a5,28(sp)
   1168e:	c391                	beqz	a5,11692 <_ZN9__gnu_cxx27__verbose_terminate_handlerEv+0x74>
   11690:	8526                	mv	a0,s1
   11692:	6a30d0ef          	jal	1f534 <fputs>
   11696:	9501b783          	ld	a5,-1712(gp) # 36398 <_impure_ptr>
   1169a:	0002a537          	lui	a0,0x2a
   1169e:	55850513          	addi	a0,a0,1368 # 2a558 <__clzdi2+0x288>
   116a2:	6f8c                	ld	a1,24(a5)
   116a4:	6910d0ef          	jal	1f534 <fputs>
   116a8:	47f2                	lw	a5,28(sp)
   116aa:	e781                	bnez	a5,116b2 <_ZN9__gnu_cxx27__verbose_terminate_handlerEv+0x94>
   116ac:	854a                	mv	a0,s2
   116ae:	66b0c0ef          	jal	1e518 <free>
   116b2:	f17ff0ef          	jal	115c8 <__cxa_rethrow>
   116b6:	4785                	li	a5,1
   116b8:	04f59963          	bne	a1,a5,1170a <_ZN9__gnu_cxx27__verbose_terminate_handlerEv+0xec>
   116bc:	108060ef          	jal	177c4 <__cxa_begin_catch>
   116c0:	611c                	ld	a5,0(a0)
   116c2:	6b9c                	ld	a5,16(a5)
   116c4:	9782                	jalr	a5
   116c6:	9501b783          	ld	a5,-1712(gp) # 36398 <_impure_ptr>
   116ca:	84aa                	mv	s1,a0
   116cc:	0002a537          	lui	a0,0x2a
   116d0:	6f8c                	ld	a1,24(a5)
   116d2:	59050513          	addi	a0,a0,1424 # 2a590 <__clzdi2+0x2c0>
   116d6:	65f0d0ef          	jal	1f534 <fputs>
   116da:	a809                	j	116ec <_ZN9__gnu_cxx27__verbose_terminate_handlerEv+0xce>
   116dc:	9501b783          	ld	a5,-1712(gp) # 36398 <_impure_ptr>
   116e0:	0002a537          	lui	a0,0x2a
   116e4:	56050513          	addi	a0,a0,1376 # 2a560 <__clzdi2+0x290>
   116e8:	6f8c                	ld	a1,24(a5)
   116ea:	bf89                	j	1163c <_ZN9__gnu_cxx27__verbose_terminate_handlerEv+0x1e>
   116ec:	9501b783          	ld	a5,-1712(gp) # 36398 <_impure_ptr>
   116f0:	8526                	mv	a0,s1
   116f2:	6f8c                	ld	a1,24(a5)
   116f4:	6410d0ef          	jal	1f534 <fputs>
   116f8:	9501b783          	ld	a5,-1712(gp) # 36398 <_impure_ptr>
   116fc:	4529                	li	a0,10
   116fe:	6f8c                	ld	a1,24(a5)
   11700:	5910d0ef          	jal	1f490 <fputc>
   11704:	12e060ef          	jal	17832 <__cxa_end_catch>
   11708:	bf25                	j	11640 <_ZN9__gnu_cxx27__verbose_terminate_handlerEv+0x22>
   1170a:	0ba060ef          	jal	177c4 <__cxa_begin_catch>
   1170e:	124060ef          	jal	17832 <__cxa_end_catch>
   11712:	b73d                	j	11640 <_ZN9__gnu_cxx27__verbose_terminate_handlerEv+0x22>
   11714:	e42a                	sd	a0,8(sp)
   11716:	11c060ef          	jal	17832 <__cxa_end_catch>
   1171a:	6522                	ld	a0,8(sp)
   1171c:	1290b0ef          	jal	1d044 <_Unwind_Resume>

0000000000011720 <_ZNSt11char_traitsIcE4copyEPcPKcm.isra.0>:
   11720:	c219                	beqz	a2,11726 <_ZNSt11char_traitsIcE4copyEPcPKcm.isra.0+0x6>
   11722:	12e0f06f          	j	20850 <memcpy>
   11726:	8082                	ret

0000000000011728 <_ZNSt11char_traitsIcE4findEPKcmRS1_.isra.0>:
   11728:	87ae                	mv	a5,a1
   1172a:	85b2                	mv	a1,a2
   1172c:	c781                	beqz	a5,11734 <_ZNSt11char_traitsIcE4findEPKcmRS1_.isra.0+0xc>
   1172e:	863e                	mv	a2,a5
   11730:	7360e06f          	j	1fe66 <memchr>
   11734:	4501                	li	a0,0
   11736:	8082                	ret

0000000000011738 <_ZNSt11char_traitsIcE7compareEPKcS2_m>:
   11738:	c219                	beqz	a2,1173e <_ZNSt11char_traitsIcE7compareEPKcS2_m+0x6>
   1173a:	7ba0e06f          	j	1fef4 <memcmp>
   1173e:	4501                	li	a0,0
   11740:	8082                	ret

0000000000011742 <_ZNSt7__cxx1112basic_stringIcSt11char_traitsIcESaIcEE11_S_allocateERS3_m>:
   11742:	0005d663          	bgez	a1,1174e <_ZNSt7__cxx1112basic_stringIcSt11char_traitsIcESaIcEE11_S_allocateERS3_m+0xc>
   11746:	1141                	addi	sp,sp,-16
   11748:	e406                	sd	ra,8(sp)
   1174a:	b1bfe0ef          	jal	10264 <_ZSt17__throw_bad_allocv>
   1174e:	852e                	mv	a0,a1
   11750:	1d40606f          	j	17924 <_Znwm>

0000000000011754 <_ZNSt7__cxx1112basic_stringIcSt11char_traitsIcESaIcEE7_M_dataEPc>:
   11754:	e10c                	sd	a1,0(a0)
   11756:	8082                	ret

0000000000011758 <_ZNSt7__cxx1112basic_stringIcSt11char_traitsIcESaIcEE9_M_lengthEm>:
   11758:	e50c                	sd	a1,8(a0)
   1175a:	8082                	ret

000000000001175c <_ZNKSt7__cxx1112basic_stringIcSt11char_traitsIcESaIcEE7_M_dataEv>:
   1175c:	6108                	ld	a0,0(a0)
   1175e:	8082                	ret

0000000000011760 <_ZNSt7__cxx1112basic_stringIcSt11char_traitsIcESaIcEE13_M_local_dataEv>:
   11760:	0541                	addi	a0,a0,16
   11762:	8082                	ret

0000000000011764 <_ZNKSt7__cxx1112basic_stringIcSt11char_traitsIcESaIcEE13_M_local_dataEv>:
   11764:	0541                	addi	a0,a0,16
   11766:	8082                	ret

0000000000011768 <_ZNSt7__cxx1112basic_stringIcSt11char_traitsIcESaIcEE11_M_capacityEm>:
   11768:	e90c                	sd	a1,16(a0)
   1176a:	8082                	ret

000000000001176c <_ZNSt7__cxx1112basic_stringIcSt11char_traitsIcESaIcEE13_M_set_lengthEm>:
   1176c:	611c                	ld	a5,0(a0)
   1176e:	e50c                	sd	a1,8(a0)
   11770:	97ae                	add	a5,a5,a1
   11772:	00078023          	sb	zero,0(a5)
   11776:	8082                	ret

0000000000011778 <_ZNKSt7__cxx1112basic_stringIcSt11char_traitsIcESaIcEE11_M_is_localEv>:
   11778:	01050793          	addi	a5,a0,16
   1177c:	6108                	ld	a0,0(a0)
   1177e:	8d1d                	sub	a0,a0,a5
   11780:	00153513          	seqz	a0,a0
   11784:	8082                	ret

0000000000011786 <_ZNSt7__cxx1112basic_stringIcSt11char_traitsIcESaIcEE9_M_createERmm>:
   11786:	619c                	ld	a5,0(a1)
   11788:	5775                	li	a4,-3
   1178a:	8305                	srli	a4,a4,0x1
   1178c:	00f77a63          	bgeu	a4,a5,117a0 <_ZNSt7__cxx1112basic_stringIcSt11char_traitsIcESaIcEE9_M_createERmm+0x1a>
   11790:	0002a537          	lui	a0,0x2a
   11794:	1141                	addi	sp,sp,-16
   11796:	5a050513          	addi	a0,a0,1440 # 2a5a0 <__clzdi2+0x2d0>
   1179a:	e406                	sd	ra,8(sp)
   1179c:	c0ffe0ef          	jal	103aa <_ZSt20__throw_length_errorPKc>
   117a0:	00f67963          	bgeu	a2,a5,117b2 <_ZNSt7__cxx1112basic_stringIcSt11char_traitsIcESaIcEE9_M_createERmm+0x2c>
   117a4:	0606                	slli	a2,a2,0x1
   117a6:	00c7f663          	bgeu	a5,a2,117b2 <_ZNSt7__cxx1112basic_stringIcSt11char_traitsIcESaIcEE9_M_createERmm+0x2c>
   117aa:	00c76763          	bltu	a4,a2,117b8 <_ZNSt7__cxx1112basic_stringIcSt11char_traitsIcESaIcEE9_M_createERmm+0x32>
   117ae:	e190                	sd	a2,0(a1)
   117b0:	87b2                	mv	a5,a2
   117b2:	00178593          	addi	a1,a5,1
   117b6:	b771                	j	11742 <_ZNSt7__cxx1112basic_stringIcSt11char_traitsIcESaIcEE11_S_allocateERS3_m>
   117b8:	e198                	sd	a4,0(a1)
   117ba:	87ba                	mv	a5,a4
   117bc:	bfdd                	j	117b2 <_ZNSt7__cxx1112basic_stringIcSt11char_traitsIcESaIcEE9_M_createERmm+0x2c>

00000000000117be <_ZNSt7__cxx1112basic_stringIcSt11char_traitsIcESaIcEE10_M_disposeEv>:
   117be:	87aa                	mv	a5,a0
   117c0:	6108                	ld	a0,0(a0)
   117c2:	07c1                	addi	a5,a5,16
   117c4:	00f50463          	beq	a0,a5,117cc <_ZNSt7__cxx1112basic_stringIcSt11char_traitsIcESaIcEE10_M_disposeEv+0xe>
   117c8:	e20ff06f          	j	10de8 <_ZdlPv>
   117cc:	8082                	ret

00000000000117ce <_ZNSt7__cxx1112basic_stringIcSt11char_traitsIcESaIcEE10_M_destroyEm>:
   117ce:	6108                	ld	a0,0(a0)
   117d0:	e18ff06f          	j	10de8 <_ZdlPv>

00000000000117d4 <_ZNSt7__cxx1112basic_stringIcSt11char_traitsIcESaIcEE16_M_get_allocatorEv>:
   117d4:	8082                	ret

00000000000117d6 <_ZNKSt7__cxx1112basic_stringIcSt11char_traitsIcESaIcEE16_M_get_allocatorEv>:
   117d6:	8082                	ret

00000000000117d8 <_ZNSt7__cxx1112basic_stringIcSt11char_traitsIcESaIcEE17_M_init_local_bufEv>:
   117d8:	8082                	ret

00000000000117da <_ZNSt7__cxx1112basic_stringIcSt11char_traitsIcESaIcEE17_M_use_local_dataEv>:
   117da:	0541                	addi	a0,a0,16
   117dc:	8082                	ret

00000000000117de <_ZNKSt7__cxx1112basic_stringIcSt11char_traitsIcESaIcEE8_M_checkEmPKc>:
   117de:	87aa                	mv	a5,a0
   117e0:	6794                	ld	a3,8(a5)
   117e2:	852e                	mv	a0,a1
   117e4:	00b6fc63          	bgeu	a3,a1,117fc <_ZNKSt7__cxx1112basic_stringIcSt11char_traitsIcESaIcEE8_M_checkEmPKc+0x1e>
   117e8:	85b2                	mv	a1,a2
   117ea:	862a                	mv	a2,a0
   117ec:	0002a537          	lui	a0,0x2a
   117f0:	1141                	addi	sp,sp,-16
   117f2:	5b850513          	addi	a0,a0,1464 # 2a5b8 <__clzdi2+0x2e8>
   117f6:	e406                	sd	ra,8(sp)
   117f8:	c27fe0ef          	jal	1041e <_ZSt24__throw_out_of_range_fmtPKcz>
   117fc:	8082                	ret

00000000000117fe <_ZNKSt7__cxx1112basic_stringIcSt11char_traitsIcESaIcEE15_M_check_lengthEmmPKc>:
   117fe:	57f5                	li	a5,-3
   11800:	8385                	srli	a5,a5,0x1
   11802:	95be                	add	a1,a1,a5
   11804:	651c                	ld	a5,8(a0)
   11806:	8d9d                	sub	a1,a1,a5
   11808:	00c5f763          	bgeu	a1,a2,11816 <_ZNKSt7__cxx1112basic_stringIcSt11char_traitsIcESaIcEE15_M_check_lengthEmmPKc+0x18>
   1180c:	1141                	addi	sp,sp,-16
   1180e:	8536                	mv	a0,a3
   11810:	e406                	sd	ra,8(sp)
   11812:	b99fe0ef          	jal	103aa <_ZSt20__throw_length_errorPKc>
   11816:	8082                	ret

0000000000011818 <_ZNKSt7__cxx1112basic_stringIcSt11char_traitsIcESaIcEE8_M_limitEmm>:
   11818:	6508                	ld	a0,8(a0)
   1181a:	8d0d                	sub	a0,a0,a1
   1181c:	00a67363          	bgeu	a2,a0,11822 <_ZNKSt7__cxx1112basic_stringIcSt11char_traitsIcESaIcEE8_M_limitEmm+0xa>
   11820:	8532                	mv	a0,a2
   11822:	8082                	ret

0000000000011824 <_ZNKSt7__cxx1112basic_stringIcSt11char_traitsIcESaIcEE11_M_disjunctEPKc>:
   11824:	611c                	ld	a5,0(a0)
   11826:	00f5e763          	bltu	a1,a5,11834 <_ZNKSt7__cxx1112basic_stringIcSt11char_traitsIcESaIcEE11_M_disjunctEPKc+0x10>
   1182a:	6518                	ld	a4,8(a0)
   1182c:	97ba                	add	a5,a5,a4
   1182e:	00b7b533          	sltu	a0,a5,a1
   11832:	8082                	ret
   11834:	4505                	li	a0,1
   11836:	8082                	ret

0000000000011838 <_ZNSt7__cxx1112basic_stringIcSt11char_traitsIcESaIcEE7_S_copyEPcPKcm>:
   11838:	4785                	li	a5,1
   1183a:	00f61763          	bne	a2,a5,11848 <_ZNSt7__cxx1112basic_stringIcSt11char_traitsIcESaIcEE7_S_copyEPcPKcm+0x10>
   1183e:	0005c783          	lbu	a5,0(a1)
   11842:	00f50023          	sb	a5,0(a0)
   11846:	8082                	ret
   11848:	bde1                	j	11720 <_ZNSt11char_traitsIcE4copyEPcPKcm.isra.0>

000000000001184a <_ZNSt7__cxx1112basic_stringIcSt11char_traitsIcESaIcEE7_S_moveEPcPKcm>:
   1184a:	4705                	li	a4,1
   1184c:	00e61763          	bne	a2,a4,1185a <_ZNSt7__cxx1112basic_stringIcSt11char_traitsIcESaIcEE7_S_moveEPcPKcm+0x10>
   11850:	0005c783          	lbu	a5,0(a1)
   11854:	00f50023          	sb	a5,0(a0)
   11858:	8082                	ret
   1185a:	c219                	beqz	a2,11860 <_ZNSt7__cxx1112basic_stringIcSt11char_traitsIcESaIcEE7_S_moveEPcPKcm+0x16>
   1185c:	63b0e06f          	j	20696 <memmove>
   11860:	8082                	ret

0000000000011862 <_ZNSt7__cxx1112basic_stringIcSt11char_traitsIcESaIcEE9_S_assignEPcmc>:
   11862:	87ae                	mv	a5,a1
   11864:	4705                	li	a4,1
   11866:	85b2                	mv	a1,a2
   11868:	00e79563          	bne	a5,a4,11872 <_ZNSt7__cxx1112basic_stringIcSt11char_traitsIcESaIcEE9_S_assignEPcmc+0x10>
   1186c:	00c50023          	sb	a2,0(a0)
   11870:	8082                	ret
   11872:	c781                	beqz	a5,1187a <_ZNSt7__cxx1112basic_stringIcSt11char_traitsIcESaIcEE9_S_assignEPcmc+0x18>
   11874:	863e                	mv	a2,a5
   11876:	7310e06f          	j	207a6 <memset>
   1187a:	8082                	ret

000000000001187c <_ZNSt7__cxx1112basic_stringIcSt11char_traitsIcESaIcEE12_M_constructEmc>:
   1187c:	7179                	addi	sp,sp,-48
   1187e:	f022                	sd	s0,32(sp)
   11880:	ec26                	sd	s1,24(sp)
   11882:	f406                	sd	ra,40(sp)
   11884:	e42e                	sd	a1,8(sp)
   11886:	47bd                	li	a5,15
   11888:	842a                	mv	s0,a0
   1188a:	84b2                	mv	s1,a2
   1188c:	00b7f963          	bgeu	a5,a1,1189e <_ZNSt7__cxx1112basic_stringIcSt11char_traitsIcESaIcEE12_M_constructEmc+0x22>
   11890:	002c                	addi	a1,sp,8
   11892:	4601                	li	a2,0
   11894:	ef3ff0ef          	jal	11786 <_ZNSt7__cxx1112basic_stringIcSt11char_traitsIcESaIcEE9_M_createERmm>
   11898:	65a2                	ld	a1,8(sp)
   1189a:	e008                	sd	a0,0(s0)
   1189c:	e80c                	sd	a1,16(s0)
   1189e:	c589                	beqz	a1,118a8 <_ZNSt7__cxx1112basic_stringIcSt11char_traitsIcESaIcEE12_M_constructEmc+0x2c>
   118a0:	6008                	ld	a0,0(s0)
   118a2:	8626                	mv	a2,s1
   118a4:	fbfff0ef          	jal	11862 <_ZNSt7__cxx1112basic_stringIcSt11char_traitsIcESaIcEE9_S_assignEPcmc>
   118a8:	6722                	ld	a4,8(sp)
   118aa:	601c                	ld	a5,0(s0)
   118ac:	e418                	sd	a4,8(s0)
   118ae:	97ba                	add	a5,a5,a4
   118b0:	00078023          	sb	zero,0(a5)
   118b4:	70a2                	ld	ra,40(sp)
   118b6:	7402                	ld	s0,32(sp)
   118b8:	64e2                	ld	s1,24(sp)
   118ba:	6145                	addi	sp,sp,48
   118bc:	8082                	ret

00000000000118be <_ZNSt7__cxx1112basic_stringIcSt11char_traitsIcESaIcEE18_M_construct_aux_2Emc>:
   118be:	bf7d                	j	1187c <_ZNSt7__cxx1112basic_stringIcSt11char_traitsIcESaIcEE12_M_constructEmc>

00000000000118c0 <_ZNSt7__cxx1112basic_stringIcSt11char_traitsIcESaIcEE13_S_copy_charsEPcS5_S5_>:
   118c0:	8e0d                	sub	a2,a2,a1
   118c2:	bf9d                	j	11838 <_ZNSt7__cxx1112basic_stringIcSt11char_traitsIcESaIcEE7_S_copyEPcPKcm>

00000000000118c4 <_ZNSt7__cxx1112basic_stringIcSt11char_traitsIcESaIcEE13_S_copy_charsEPcN9__gnu_cxx17__normal_iteratorIS5_S4_EES8_>:
   118c4:	bff5                	j	118c0 <_ZNSt7__cxx1112basic_stringIcSt11char_traitsIcESaIcEE13_S_copy_charsEPcS5_S5_>

00000000000118c6 <_ZNSt7__cxx1112basic_stringIcSt11char_traitsIcESaIcEE13_S_copy_charsEPcPKcS7_>:
   118c6:	8e0d                	sub	a2,a2,a1
   118c8:	bf85                	j	11838 <_ZNSt7__cxx1112basic_stringIcSt11char_traitsIcESaIcEE7_S_copyEPcPKcm>

00000000000118ca <_ZNSt7__cxx1112basic_stringIcSt11char_traitsIcESaIcEE13_S_copy_charsEPcN9__gnu_cxx17__normal_iteratorIPKcS4_EESA_>:
   118ca:	bff5                	j	118c6 <_ZNSt7__cxx1112basic_stringIcSt11char_traitsIcESaIcEE13_S_copy_charsEPcPKcS7_>

00000000000118cc <_ZNSt7__cxx1112basic_stringIcSt11char_traitsIcESaIcEE10_S_compareEmm>:
   118cc:	800007b7          	lui	a5,0x80000
   118d0:	40b505b3          	sub	a1,a0,a1
   118d4:	fff7c513          	not	a0,a5
   118d8:	00b54763          	blt	a0,a1,118e6 <_ZNSt7__cxx1112basic_stringIcSt11char_traitsIcESaIcEE10_S_compareEmm+0x1a>
   118dc:	853e                	mv	a0,a5
   118de:	00f5c463          	blt	a1,a5,118e6 <_ZNSt7__cxx1112basic_stringIcSt11char_traitsIcESaIcEE10_S_compareEmm+0x1a>
   118e2:	0005851b          	sext.w	a0,a1
   118e6:	8082                	ret

00000000000118e8 <_ZNSt7__cxx1112basic_stringIcSt11char_traitsIcESaIcEE9_M_assignERKS4_>:
   118e8:	06b50563          	beq	a0,a1,11952 <_ZNSt7__cxx1112basic_stringIcSt11char_traitsIcESaIcEE9_M_assignERKS4_+0x6a>
   118ec:	7139                	addi	sp,sp,-64
   118ee:	f04a                	sd	s2,32(sp)
   118f0:	00053903          	ld	s2,0(a0)
   118f4:	f426                	sd	s1,40(sp)
   118f6:	fc06                	sd	ra,56(sp)
   118f8:	f822                	sd	s0,48(sp)
   118fa:	ec4e                	sd	s3,24(sp)
   118fc:	01050793          	addi	a5,a0,16
   11900:	6584                	ld	s1,8(a1)
   11902:	463d                	li	a2,15
   11904:	00f90363          	beq	s2,a5,1190a <_ZNSt7__cxx1112basic_stringIcSt11char_traitsIcESaIcEE9_M_assignERKS4_+0x22>
   11908:	6910                	ld	a2,16(a0)
   1190a:	89ae                	mv	s3,a1
   1190c:	842a                	mv	s0,a0
   1190e:	02967563          	bgeu	a2,s1,11938 <_ZNSt7__cxx1112basic_stringIcSt11char_traitsIcESaIcEE9_M_assignERKS4_+0x50>
   11912:	002c                	addi	a1,sp,8
   11914:	e426                	sd	s1,8(sp)
   11916:	e71ff0ef          	jal	11786 <_ZNSt7__cxx1112basic_stringIcSt11char_traitsIcESaIcEE9_M_createERmm>
   1191a:	892a                	mv	s2,a0
   1191c:	8522                	mv	a0,s0
   1191e:	ea1ff0ef          	jal	117be <_ZNSt7__cxx1112basic_stringIcSt11char_traitsIcESaIcEE10_M_disposeEv>
   11922:	67a2                	ld	a5,8(sp)
   11924:	01243023          	sd	s2,0(s0)
   11928:	e81c                	sd	a5,16(s0)
   1192a:	0009b583          	ld	a1,0(s3)
   1192e:	8626                	mv	a2,s1
   11930:	854a                	mv	a0,s2
   11932:	f07ff0ef          	jal	11838 <_ZNSt7__cxx1112basic_stringIcSt11char_traitsIcESaIcEE7_S_copyEPcPKcm>
   11936:	a011                	j	1193a <_ZNSt7__cxx1112basic_stringIcSt11char_traitsIcESaIcEE9_M_assignERKS4_+0x52>
   11938:	f8ed                	bnez	s1,1192a <_ZNSt7__cxx1112basic_stringIcSt11char_traitsIcESaIcEE9_M_assignERKS4_+0x42>
   1193a:	601c                	ld	a5,0(s0)
   1193c:	e404                	sd	s1,8(s0)
   1193e:	97a6                	add	a5,a5,s1
   11940:	00078023          	sb	zero,0(a5) # ffffffff80000000 <__BSS_END__+0xffffffff7ffc5568>
   11944:	70e2                	ld	ra,56(sp)
   11946:	7442                	ld	s0,48(sp)
   11948:	74a2                	ld	s1,40(sp)
   1194a:	7902                	ld	s2,32(sp)
   1194c:	69e2                	ld	s3,24(sp)
   1194e:	6121                	addi	sp,sp,64
   11950:	8082                	ret
   11952:	8082                	ret

0000000000011954 <_ZNSt7__cxx1112basic_stringIcSt11char_traitsIcESaIcEE9_M_mutateEmmPKcm>:
   11954:	715d                	addi	sp,sp,-80
   11956:	f44e                	sd	s3,40(sp)
   11958:	00853983          	ld	s3,8(a0)
   1195c:	40c707b3          	sub	a5,a4,a2
   11960:	f052                	sd	s4,32(sp)
   11962:	8a3a                	mv	s4,a4
   11964:	6118                	ld	a4,0(a0)
   11966:	97ce                	add	a5,a5,s3
   11968:	e0a2                	sd	s0,64(sp)
   1196a:	fc26                	sd	s1,56(sp)
   1196c:	f84a                	sd	s2,48(sp)
   1196e:	e85a                	sd	s6,16(sp)
   11970:	e43e                	sd	a5,8(sp)
   11972:	e486                	sd	ra,72(sp)
   11974:	ec56                	sd	s5,24(sp)
   11976:	01050793          	addi	a5,a0,16
   1197a:	8932                	mv	s2,a2
   1197c:	842a                	mv	s0,a0
   1197e:	84ae                	mv	s1,a1
   11980:	8b36                	mv	s6,a3
   11982:	463d                	li	a2,15
   11984:	00f70363          	beq	a4,a5,1198a <_ZNSt7__cxx1112basic_stringIcSt11char_traitsIcESaIcEE9_M_mutateEmmPKcm+0x36>
   11988:	6910                	ld	a2,16(a0)
   1198a:	002c                	addi	a1,sp,8
   1198c:	8522                	mv	a0,s0
   1198e:	9926                	add	s2,s2,s1
   11990:	df7ff0ef          	jal	11786 <_ZNSt7__cxx1112basic_stringIcSt11char_traitsIcESaIcEE9_M_createERmm>
   11994:	412989b3          	sub	s3,s3,s2
   11998:	8aaa                	mv	s5,a0
   1199a:	c489                	beqz	s1,119a4 <_ZNSt7__cxx1112basic_stringIcSt11char_traitsIcESaIcEE9_M_mutateEmmPKcm+0x50>
   1199c:	600c                	ld	a1,0(s0)
   1199e:	8626                	mv	a2,s1
   119a0:	e99ff0ef          	jal	11838 <_ZNSt7__cxx1112basic_stringIcSt11char_traitsIcESaIcEE7_S_copyEPcPKcm>
   119a4:	000b0a63          	beqz	s6,119b8 <_ZNSt7__cxx1112basic_stringIcSt11char_traitsIcESaIcEE9_M_mutateEmmPKcm+0x64>
   119a8:	000a0863          	beqz	s4,119b8 <_ZNSt7__cxx1112basic_stringIcSt11char_traitsIcESaIcEE9_M_mutateEmmPKcm+0x64>
   119ac:	8652                	mv	a2,s4
   119ae:	85da                	mv	a1,s6
   119b0:	009a8533          	add	a0,s5,s1
   119b4:	e85ff0ef          	jal	11838 <_ZNSt7__cxx1112basic_stringIcSt11char_traitsIcESaIcEE7_S_copyEPcPKcm>
   119b8:	00098a63          	beqz	s3,119cc <_ZNSt7__cxx1112basic_stringIcSt11char_traitsIcESaIcEE9_M_mutateEmmPKcm+0x78>
   119bc:	600c                	ld	a1,0(s0)
   119be:	01448533          	add	a0,s1,s4
   119c2:	864e                	mv	a2,s3
   119c4:	95ca                	add	a1,a1,s2
   119c6:	9556                	add	a0,a0,s5
   119c8:	e71ff0ef          	jal	11838 <_ZNSt7__cxx1112basic_stringIcSt11char_traitsIcESaIcEE7_S_copyEPcPKcm>
   119cc:	8522                	mv	a0,s0
   119ce:	df1ff0ef          	jal	117be <_ZNSt7__cxx1112basic_stringIcSt11char_traitsIcESaIcEE10_M_disposeEv>
   119d2:	67a2                	ld	a5,8(sp)
   119d4:	01543023          	sd	s5,0(s0)
   119d8:	e81c                	sd	a5,16(s0)
   119da:	60a6                	ld	ra,72(sp)
   119dc:	6406                	ld	s0,64(sp)
   119de:	74e2                	ld	s1,56(sp)
   119e0:	7942                	ld	s2,48(sp)
   119e2:	79a2                	ld	s3,40(sp)
   119e4:	7a02                	ld	s4,32(sp)
   119e6:	6ae2                	ld	s5,24(sp)
   119e8:	6b42                	ld	s6,16(sp)
   119ea:	6161                	addi	sp,sp,80
   119ec:	8082                	ret

00000000000119ee <_ZNSt7__cxx1112basic_stringIcSt11char_traitsIcESaIcEE8_M_eraseEmm>:
   119ee:	1101                	addi	sp,sp,-32
   119f0:	e426                	sd	s1,8(sp)
   119f2:	87ae                	mv	a5,a1
   119f4:	84b2                	mv	s1,a2
   119f6:	95b2                	add	a1,a1,a2
   119f8:	6510                	ld	a2,8(a0)
   119fa:	e822                	sd	s0,16(sp)
   119fc:	ec06                	sd	ra,24(sp)
   119fe:	8e0d                	sub	a2,a2,a1
   11a00:	842a                	mv	s0,a0
   11a02:	c619                	beqz	a2,11a10 <_ZNSt7__cxx1112basic_stringIcSt11char_traitsIcESaIcEE8_M_eraseEmm+0x22>
   11a04:	c491                	beqz	s1,11a10 <_ZNSt7__cxx1112basic_stringIcSt11char_traitsIcESaIcEE8_M_eraseEmm+0x22>
   11a06:	6108                	ld	a0,0(a0)
   11a08:	95aa                	add	a1,a1,a0
   11a0a:	953e                	add	a0,a0,a5
   11a0c:	e3fff0ef          	jal	1184a <_ZNSt7__cxx1112basic_stringIcSt11char_traitsIcESaIcEE7_S_moveEPcPKcm>
   11a10:	6410                	ld	a2,8(s0)
   11a12:	601c                	ld	a5,0(s0)
   11a14:	8e05                	sub	a2,a2,s1
   11a16:	e410                	sd	a2,8(s0)
   11a18:	97b2                	add	a5,a5,a2
   11a1a:	00078023          	sb	zero,0(a5)
   11a1e:	60e2                	ld	ra,24(sp)
   11a20:	6442                	ld	s0,16(sp)
   11a22:	64a2                	ld	s1,8(sp)
   11a24:	6105                	addi	sp,sp,32
   11a26:	8082                	ret

0000000000011a28 <_ZNSt7__cxx1112basic_stringIcSt11char_traitsIcESaIcEEC1Ev>:
   11a28:	01050793          	addi	a5,a0,16
   11a2c:	e11c                	sd	a5,0(a0)
   11a2e:	00053423          	sd	zero,8(a0)
   11a32:	00050823          	sb	zero,16(a0)
   11a36:	8082                	ret

0000000000011a38 <_ZNSt7__cxx1112basic_stringIcSt11char_traitsIcESaIcEEC1ERKS3_>:
   11a38:	01050793          	addi	a5,a0,16
   11a3c:	e11c                	sd	a5,0(a0)
   11a3e:	00053423          	sd	zero,8(a0)
   11a42:	00050823          	sb	zero,16(a0)
   11a46:	8082                	ret

0000000000011a48 <_ZNSt7__cxx1112basic_stringIcSt11char_traitsIcESaIcEEC1EmcRKS3_>:
   11a48:	01050793          	addi	a5,a0,16
   11a4c:	e11c                	sd	a5,0(a0)
   11a4e:	b53d                	j	1187c <_ZNSt7__cxx1112basic_stringIcSt11char_traitsIcESaIcEE12_M_constructEmc>

0000000000011a50 <_ZNSt7__cxx1112basic_stringIcSt11char_traitsIcESaIcEEC1EOS4_>:
   11a50:	1101                	addi	sp,sp,-32
   11a52:	e822                	sd	s0,16(sp)
   11a54:	e426                	sd	s1,8(sp)
   11a56:	e04a                	sd	s2,0(sp)
   11a58:	84aa                	mv	s1,a0
   11a5a:	ec06                	sd	ra,24(sp)
   11a5c:	0541                	addi	a0,a0,16
   11a5e:	e088                	sd	a0,0(s1)
   11a60:	619c                	ld	a5,0(a1)
   11a62:	01058913          	addi	s2,a1,16
   11a66:	842e                	mv	s0,a1
   11a68:	02f91563          	bne	s2,a5,11a92 <_ZNSt7__cxx1112basic_stringIcSt11char_traitsIcESaIcEEC1EOS4_+0x42>
   11a6c:	6590                	ld	a2,8(a1)
   11a6e:	85ca                	mv	a1,s2
   11a70:	0605                	addi	a2,a2,1
   11a72:	cafff0ef          	jal	11720 <_ZNSt11char_traitsIcE4copyEPcPKcm.isra.0>
   11a76:	00040823          	sb	zero,16(s0)
   11a7a:	641c                	ld	a5,8(s0)
   11a7c:	01243023          	sd	s2,0(s0)
   11a80:	60e2                	ld	ra,24(sp)
   11a82:	00043423          	sd	zero,8(s0)
   11a86:	6442                	ld	s0,16(sp)
   11a88:	e49c                	sd	a5,8(s1)
   11a8a:	6902                	ld	s2,0(sp)
   11a8c:	64a2                	ld	s1,8(sp)
   11a8e:	6105                	addi	sp,sp,32
   11a90:	8082                	ret
   11a92:	e09c                	sd	a5,0(s1)
   11a94:	699c                	ld	a5,16(a1)
   11a96:	e89c                	sd	a5,16(s1)
   11a98:	bff9                	j	11a76 <_ZNSt7__cxx1112basic_stringIcSt11char_traitsIcESaIcEEC1EOS4_+0x26>

0000000000011a9a <_ZNSt7__cxx1112basic_stringIcSt11char_traitsIcESaIcEEC1EOS4_RKS3_>:
   11a9a:	01050693          	addi	a3,a0,16
   11a9e:	e114                	sd	a3,0(a0)
   11aa0:	6198                	ld	a4,0(a1)
   11aa2:	01058793          	addi	a5,a1,16
   11aa6:	6590                	ld	a2,8(a1)
   11aa8:	02e79963          	bne	a5,a4,11ada <_ZNSt7__cxx1112basic_stringIcSt11char_traitsIcESaIcEEC1EOS4_RKS3_+0x40>
   11aac:	1101                	addi	sp,sp,-32
   11aae:	e822                	sd	s0,16(sp)
   11ab0:	e426                	sd	s1,8(sp)
   11ab2:	842e                	mv	s0,a1
   11ab4:	84aa                	mv	s1,a0
   11ab6:	85be                	mv	a1,a5
   11ab8:	0605                	addi	a2,a2,1
   11aba:	8536                	mv	a0,a3
   11abc:	ec06                	sd	ra,24(sp)
   11abe:	c63ff0ef          	jal	11720 <_ZNSt11char_traitsIcE4copyEPcPKcm.isra.0>
   11ac2:	641c                	ld	a5,8(s0)
   11ac4:	00043423          	sd	zero,8(s0)
   11ac8:	e49c                	sd	a5,8(s1)
   11aca:	601c                	ld	a5,0(s0)
   11acc:	00078023          	sb	zero,0(a5)
   11ad0:	60e2                	ld	ra,24(sp)
   11ad2:	6442                	ld	s0,16(sp)
   11ad4:	64a2                	ld	s1,8(sp)
   11ad6:	6105                	addi	sp,sp,32
   11ad8:	8082                	ret
   11ada:	e118                	sd	a4,0(a0)
   11adc:	6998                	ld	a4,16(a1)
   11ade:	e510                	sd	a2,8(a0)
   11ae0:	e19c                	sd	a5,0(a1)
   11ae2:	e918                	sd	a4,16(a0)
   11ae4:	0005b423          	sd	zero,8(a1)
   11ae8:	00058823          	sb	zero,16(a1)
   11aec:	8082                	ret

0000000000011aee <_ZNSt7__cxx1112basic_stringIcSt11char_traitsIcESaIcEED1Ev>:
   11aee:	b9c1                	j	117be <_ZNSt7__cxx1112basic_stringIcSt11char_traitsIcESaIcEE10_M_disposeEv>

0000000000011af0 <_ZNSt7__cxx1112basic_stringIcSt11char_traitsIcESaIcEEaSERKS4_>:
   11af0:	1101                	addi	sp,sp,-32
   11af2:	ec06                	sd	ra,24(sp)
   11af4:	e42a                	sd	a0,8(sp)
   11af6:	df3ff0ef          	jal	118e8 <_ZNSt7__cxx1112basic_stringIcSt11char_traitsIcESaIcEE9_M_assignERKS4_>
   11afa:	60e2                	ld	ra,24(sp)
   11afc:	6522                	ld	a0,8(sp)
   11afe:	6105                	addi	sp,sp,32
   11b00:	8082                	ret

0000000000011b02 <_ZNSt7__cxx1112basic_stringIcSt11char_traitsIcESaIcEEaSEOS4_>:
   11b02:	619c                	ld	a5,0(a1)
   11b04:	1101                	addi	sp,sp,-32
   11b06:	e822                	sd	s0,16(sp)
   11b08:	e426                	sd	s1,8(sp)
   11b0a:	842e                	mv	s0,a1
   11b0c:	ec06                	sd	ra,24(sp)
   11b0e:	05c1                	addi	a1,a1,16
   11b10:	84aa                	mv	s1,a0
   11b12:	6108                	ld	a0,0(a0)
   11b14:	00f59f63          	bne	a1,a5,11b32 <_ZNSt7__cxx1112basic_stringIcSt11char_traitsIcESaIcEEaSEOS4_+0x30>
   11b18:	02849363          	bne	s1,s0,11b3e <_ZNSt7__cxx1112basic_stringIcSt11char_traitsIcESaIcEEaSEOS4_+0x3c>
   11b1c:	601c                	ld	a5,0(s0)
   11b1e:	00043423          	sd	zero,8(s0)
   11b22:	8526                	mv	a0,s1
   11b24:	00078023          	sb	zero,0(a5)
   11b28:	60e2                	ld	ra,24(sp)
   11b2a:	6442                	ld	s0,16(sp)
   11b2c:	64a2                	ld	s1,8(sp)
   11b2e:	6105                	addi	sp,sp,32
   11b30:	8082                	ret
   11b32:	01048693          	addi	a3,s1,16
   11b36:	00d51f63          	bne	a0,a3,11b54 <_ZNSt7__cxx1112basic_stringIcSt11char_traitsIcESaIcEEaSEOS4_+0x52>
   11b3a:	4501                	li	a0,0
   11b3c:	a829                	j	11b56 <_ZNSt7__cxx1112basic_stringIcSt11char_traitsIcESaIcEEaSEOS4_+0x54>
   11b3e:	6410                	ld	a2,8(s0)
   11b40:	c219                	beqz	a2,11b46 <_ZNSt7__cxx1112basic_stringIcSt11char_traitsIcESaIcEEaSEOS4_+0x44>
   11b42:	cf7ff0ef          	jal	11838 <_ZNSt7__cxx1112basic_stringIcSt11char_traitsIcESaIcEE7_S_copyEPcPKcm>
   11b46:	6418                	ld	a4,8(s0)
   11b48:	609c                	ld	a5,0(s1)
   11b4a:	e498                	sd	a4,8(s1)
   11b4c:	97ba                	add	a5,a5,a4
   11b4e:	00078023          	sb	zero,0(a5)
   11b52:	b7e9                	j	11b1c <_ZNSt7__cxx1112basic_stringIcSt11char_traitsIcESaIcEEaSEOS4_+0x1a>
   11b54:	6898                	ld	a4,16(s1)
   11b56:	e09c                	sd	a5,0(s1)
   11b58:	641c                	ld	a5,8(s0)
   11b5a:	e49c                	sd	a5,8(s1)
   11b5c:	681c                	ld	a5,16(s0)
   11b5e:	e89c                	sd	a5,16(s1)
   11b60:	c501                	beqz	a0,11b68 <_ZNSt7__cxx1112basic_stringIcSt11char_traitsIcESaIcEEaSEOS4_+0x66>
   11b62:	e008                	sd	a0,0(s0)
   11b64:	e818                	sd	a4,16(s0)
   11b66:	bf5d                	j	11b1c <_ZNSt7__cxx1112basic_stringIcSt11char_traitsIcESaIcEEaSEOS4_+0x1a>
   11b68:	e00c                	sd	a1,0(s0)
   11b6a:	bf4d                	j	11b1c <_ZNSt7__cxx1112basic_stringIcSt11char_traitsIcESaIcEEaSEOS4_+0x1a>

0000000000011b6c <_ZNSt7__cxx1112basic_stringIcSt11char_traitsIcESaIcEE5beginEv>:
   11b6c:	6108                	ld	a0,0(a0)
   11b6e:	8082                	ret

0000000000011b70 <_ZNKSt7__cxx1112basic_stringIcSt11char_traitsIcESaIcEE5beginEv>:
   11b70:	6108                	ld	a0,0(a0)
   11b72:	8082                	ret

0000000000011b74 <_ZNSt7__cxx1112basic_stringIcSt11char_traitsIcESaIcEE3endEv>:
   11b74:	6118                	ld	a4,0(a0)
   11b76:	6508                	ld	a0,8(a0)
   11b78:	953a                	add	a0,a0,a4
   11b7a:	8082                	ret

0000000000011b7c <_ZNKSt7__cxx1112basic_stringIcSt11char_traitsIcESaIcEE3endEv>:
   11b7c:	6118                	ld	a4,0(a0)
   11b7e:	6508                	ld	a0,8(a0)
   11b80:	953a                	add	a0,a0,a4
   11b82:	8082                	ret

0000000000011b84 <_ZNSt7__cxx1112basic_stringIcSt11char_traitsIcESaIcEE6rbeginEv>:
   11b84:	619c                	ld	a5,0(a1)
   11b86:	6598                	ld	a4,8(a1)
   11b88:	97ba                	add	a5,a5,a4
   11b8a:	e11c                	sd	a5,0(a0)
   11b8c:	8082                	ret

0000000000011b8e <_ZNKSt7__cxx1112basic_stringIcSt11char_traitsIcESaIcEE6rbeginEv>:
   11b8e:	619c                	ld	a5,0(a1)
   11b90:	6598                	ld	a4,8(a1)
   11b92:	97ba                	add	a5,a5,a4
   11b94:	e11c                	sd	a5,0(a0)
   11b96:	8082                	ret

0000000000011b98 <_ZNSt7__cxx1112basic_stringIcSt11char_traitsIcESaIcEE4rendEv>:
   11b98:	619c                	ld	a5,0(a1)
   11b9a:	e11c                	sd	a5,0(a0)
   11b9c:	8082                	ret

0000000000011b9e <_ZNKSt7__cxx1112basic_stringIcSt11char_traitsIcESaIcEE4rendEv>:
   11b9e:	619c                	ld	a5,0(a1)
   11ba0:	e11c                	sd	a5,0(a0)
   11ba2:	8082                	ret

0000000000011ba4 <_ZNKSt7__cxx1112basic_stringIcSt11char_traitsIcESaIcEE6cbeginEv>:
   11ba4:	6108                	ld	a0,0(a0)
   11ba6:	8082                	ret

0000000000011ba8 <_ZNKSt7__cxx1112basic_stringIcSt11char_traitsIcESaIcEE4cendEv>:
   11ba8:	6118                	ld	a4,0(a0)
   11baa:	6508                	ld	a0,8(a0)
   11bac:	953a                	add	a0,a0,a4
   11bae:	8082                	ret

0000000000011bb0 <_ZNKSt7__cxx1112basic_stringIcSt11char_traitsIcESaIcEE7crbeginEv>:
   11bb0:	619c                	ld	a5,0(a1)
   11bb2:	6598                	ld	a4,8(a1)
   11bb4:	97ba                	add	a5,a5,a4
   11bb6:	e11c                	sd	a5,0(a0)
   11bb8:	8082                	ret

0000000000011bba <_ZNKSt7__cxx1112basic_stringIcSt11char_traitsIcESaIcEE5crendEv>:
   11bba:	619c                	ld	a5,0(a1)
   11bbc:	e11c                	sd	a5,0(a0)
   11bbe:	8082                	ret

0000000000011bc0 <_ZNKSt7__cxx1112basic_stringIcSt11char_traitsIcESaIcEE4sizeEv>:
   11bc0:	6508                	ld	a0,8(a0)
   11bc2:	8082                	ret

0000000000011bc4 <_ZNKSt7__cxx1112basic_stringIcSt11char_traitsIcESaIcEE6lengthEv>:
   11bc4:	6508                	ld	a0,8(a0)
   11bc6:	8082                	ret

0000000000011bc8 <_ZNKSt7__cxx1112basic_stringIcSt11char_traitsIcESaIcEE8max_sizeEv>:
   11bc8:	5575                	li	a0,-3
   11bca:	8105                	srli	a0,a0,0x1
   11bcc:	8082                	ret

0000000000011bce <_ZNKSt7__cxx1112basic_stringIcSt11char_traitsIcESaIcEE8capacityEv>:
   11bce:	6118                	ld	a4,0(a0)
   11bd0:	01050793          	addi	a5,a0,16
   11bd4:	00f70463          	beq	a4,a5,11bdc <_ZNKSt7__cxx1112basic_stringIcSt11char_traitsIcESaIcEE8capacityEv+0xe>
   11bd8:	6908                	ld	a0,16(a0)
   11bda:	8082                	ret
   11bdc:	453d                	li	a0,15
   11bde:	8082                	ret

0000000000011be0 <_ZNSt7__cxx1112basic_stringIcSt11char_traitsIcESaIcEE7reserveEm>:
   11be0:	6118                	ld	a4,0(a0)
   11be2:	7179                	addi	sp,sp,-48
   11be4:	f406                	sd	ra,40(sp)
   11be6:	f022                	sd	s0,32(sp)
   11be8:	ec26                	sd	s1,24(sp)
   11bea:	e42e                	sd	a1,8(sp)
   11bec:	01050793          	addi	a5,a0,16
   11bf0:	463d                	li	a2,15
   11bf2:	00f70363          	beq	a4,a5,11bf8 <_ZNSt7__cxx1112basic_stringIcSt11char_traitsIcESaIcEE7reserveEm+0x18>
   11bf6:	6910                	ld	a2,16(a0)
   11bf8:	67a2                	ld	a5,8(sp)
   11bfa:	02f67263          	bgeu	a2,a5,11c1e <_ZNSt7__cxx1112basic_stringIcSt11char_traitsIcESaIcEE7reserveEm+0x3e>
   11bfe:	002c                	addi	a1,sp,8
   11c00:	842a                	mv	s0,a0
   11c02:	b85ff0ef          	jal	11786 <_ZNSt7__cxx1112basic_stringIcSt11char_traitsIcESaIcEE9_M_createERmm>
   11c06:	6410                	ld	a2,8(s0)
   11c08:	600c                	ld	a1,0(s0)
   11c0a:	84aa                	mv	s1,a0
   11c0c:	0605                	addi	a2,a2,1
   11c0e:	c2bff0ef          	jal	11838 <_ZNSt7__cxx1112basic_stringIcSt11char_traitsIcESaIcEE7_S_copyEPcPKcm>
   11c12:	8522                	mv	a0,s0
   11c14:	babff0ef          	jal	117be <_ZNSt7__cxx1112basic_stringIcSt11char_traitsIcESaIcEE10_M_disposeEv>
   11c18:	67a2                	ld	a5,8(sp)
   11c1a:	e004                	sd	s1,0(s0)
   11c1c:	e81c                	sd	a5,16(s0)
   11c1e:	70a2                	ld	ra,40(sp)
   11c20:	7402                	ld	s0,32(sp)
   11c22:	64e2                	ld	s1,24(sp)
   11c24:	6145                	addi	sp,sp,48
   11c26:	8082                	ret

0000000000011c28 <_ZNSt7__cxx1112basic_stringIcSt11char_traitsIcESaIcEE7reserveEv>:
   11c28:	7139                	addi	sp,sp,-64
   11c2a:	ec4e                	sd	s3,24(sp)
   11c2c:	00053983          	ld	s3,0(a0)
   11c30:	f04a                	sd	s2,32(sp)
   11c32:	fc06                	sd	ra,56(sp)
   11c34:	f822                	sd	s0,48(sp)
   11c36:	f426                	sd	s1,40(sp)
   11c38:	01050913          	addi	s2,a0,16
   11c3c:	03390263          	beq	s2,s3,11c60 <_ZNSt7__cxx1112basic_stringIcSt11char_traitsIcESaIcEE7reserveEv+0x38>
   11c40:	6504                	ld	s1,8(a0)
   11c42:	47bd                	li	a5,15
   11c44:	842a                	mv	s0,a0
   11c46:	0297e463          	bltu	a5,s1,11c6e <_ZNSt7__cxx1112basic_stringIcSt11char_traitsIcESaIcEE7reserveEv+0x46>
   11c4a:	00148613          	addi	a2,s1,1
   11c4e:	85ce                	mv	a1,s3
   11c50:	854a                	mv	a0,s2
   11c52:	be7ff0ef          	jal	11838 <_ZNSt7__cxx1112basic_stringIcSt11char_traitsIcESaIcEE7_S_copyEPcPKcm>
   11c56:	854e                	mv	a0,s3
   11c58:	990ff0ef          	jal	10de8 <_ZdlPv>
   11c5c:	01243023          	sd	s2,0(s0)
   11c60:	70e2                	ld	ra,56(sp)
   11c62:	7442                	ld	s0,48(sp)
   11c64:	74a2                	ld	s1,40(sp)
   11c66:	7902                	ld	s2,32(sp)
   11c68:	69e2                	ld	s3,24(sp)
   11c6a:	6121                	addi	sp,sp,64
   11c6c:	8082                	ret
   11c6e:	691c                	ld	a5,16(a0)
   11c70:	fef4f8e3          	bgeu	s1,a5,11c60 <_ZNSt7__cxx1112basic_stringIcSt11char_traitsIcESaIcEE7reserveEv+0x38>
   11c74:	00148593          	addi	a1,s1,1
   11c78:	acbff0ef          	jal	11742 <_ZNSt7__cxx1112basic_stringIcSt11char_traitsIcESaIcEE11_S_allocateERS3_m>
   11c7c:	600c                	ld	a1,0(s0)
   11c7e:	00148613          	addi	a2,s1,1
   11c82:	89aa                	mv	s3,a0
   11c84:	bb5ff0ef          	jal	11838 <_ZNSt7__cxx1112basic_stringIcSt11char_traitsIcESaIcEE7_S_copyEPcPKcm>
   11c88:	8522                	mv	a0,s0
   11c8a:	b35ff0ef          	jal	117be <_ZNSt7__cxx1112basic_stringIcSt11char_traitsIcESaIcEE10_M_disposeEv>
   11c8e:	01343023          	sd	s3,0(s0)
   11c92:	e804                	sd	s1,16(s0)
   11c94:	b7f1                	j	11c60 <_ZNSt7__cxx1112basic_stringIcSt11char_traitsIcESaIcEE7reserveEv+0x38>
   11c96:	4785                	li	a5,1
   11c98:	00f59c63          	bne	a1,a5,11cb0 <_ZNSt7__cxx1112basic_stringIcSt11char_traitsIcESaIcEE7reserveEv+0x88>
   11c9c:	329050ef          	jal	177c4 <__cxa_begin_catch>
   11ca0:	929ff0ef          	jal	115c8 <__cxa_rethrow>
   11ca4:	e42a                	sd	a0,8(sp)
   11ca6:	38d050ef          	jal	17832 <__cxa_end_catch>
   11caa:	6522                	ld	a0,8(sp)
   11cac:	3980b0ef          	jal	1d044 <_Unwind_Resume>
   11cb0:	315050ef          	jal	177c4 <__cxa_begin_catch>
   11cb4:	7442                	ld	s0,48(sp)
   11cb6:	70e2                	ld	ra,56(sp)
   11cb8:	74a2                	ld	s1,40(sp)
   11cba:	7902                	ld	s2,32(sp)
   11cbc:	69e2                	ld	s3,24(sp)
   11cbe:	6121                	addi	sp,sp,64
   11cc0:	3730506f          	j	17832 <__cxa_end_catch>

0000000000011cc4 <_ZNSt7__cxx1112basic_stringIcSt11char_traitsIcESaIcEE13shrink_to_fitEv>:
   11cc4:	1141                	addi	sp,sp,-16
   11cc6:	e406                	sd	ra,8(sp)
   11cc8:	f61ff0ef          	jal	11c28 <_ZNSt7__cxx1112basic_stringIcSt11char_traitsIcESaIcEE7reserveEv>
   11ccc:	60a2                	ld	ra,8(sp)
   11cce:	0141                	addi	sp,sp,16
   11cd0:	8082                	ret

0000000000011cd2 <_ZNSt7__cxx1112basic_stringIcSt11char_traitsIcESaIcEE5clearEv>:
   11cd2:	611c                	ld	a5,0(a0)
   11cd4:	00053423          	sd	zero,8(a0)
   11cd8:	00078023          	sb	zero,0(a5)
   11cdc:	8082                	ret

0000000000011cde <_ZNKSt7__cxx1112basic_stringIcSt11char_traitsIcESaIcEE5emptyEv>:
   11cde:	6508                	ld	a0,8(a0)
   11ce0:	00153513          	seqz	a0,a0
   11ce4:	8082                	ret

0000000000011ce6 <_ZNKSt7__cxx1112basic_stringIcSt11char_traitsIcESaIcEEixEm>:
   11ce6:	6108                	ld	a0,0(a0)
   11ce8:	952e                	add	a0,a0,a1
   11cea:	8082                	ret

0000000000011cec <_ZNSt7__cxx1112basic_stringIcSt11char_traitsIcESaIcEEixEm>:
   11cec:	6108                	ld	a0,0(a0)
   11cee:	952e                	add	a0,a0,a1
   11cf0:	8082                	ret

0000000000011cf2 <_ZNKSt7__cxx1112basic_stringIcSt11char_traitsIcESaIcEE2atEm>:
   11cf2:	6510                	ld	a2,8(a0)
   11cf4:	00c5ea63          	bltu	a1,a2,11d08 <_ZNKSt7__cxx1112basic_stringIcSt11char_traitsIcESaIcEE2atEm+0x16>
   11cf8:	0002a537          	lui	a0,0x2a
   11cfc:	1141                	addi	sp,sp,-16
   11cfe:	5f050513          	addi	a0,a0,1520 # 2a5f0 <__clzdi2+0x320>
   11d02:	e406                	sd	ra,8(sp)
   11d04:	f1afe0ef          	jal	1041e <_ZSt24__throw_out_of_range_fmtPKcz>
   11d08:	6108                	ld	a0,0(a0)
   11d0a:	952e                	add	a0,a0,a1
   11d0c:	8082                	ret

0000000000011d0e <_ZNSt7__cxx1112basic_stringIcSt11char_traitsIcESaIcEE2atEm>:
   11d0e:	6510                	ld	a2,8(a0)
   11d10:	00c5ea63          	bltu	a1,a2,11d24 <_ZNSt7__cxx1112basic_stringIcSt11char_traitsIcESaIcEE2atEm+0x16>
   11d14:	0002a537          	lui	a0,0x2a
   11d18:	1141                	addi	sp,sp,-16
   11d1a:	5f050513          	addi	a0,a0,1520 # 2a5f0 <__clzdi2+0x320>
   11d1e:	e406                	sd	ra,8(sp)
   11d20:	efefe0ef          	jal	1041e <_ZSt24__throw_out_of_range_fmtPKcz>
   11d24:	6108                	ld	a0,0(a0)
   11d26:	952e                	add	a0,a0,a1
   11d28:	8082                	ret

0000000000011d2a <_ZNSt7__cxx1112basic_stringIcSt11char_traitsIcESaIcEE5frontEv>:
   11d2a:	6108                	ld	a0,0(a0)
   11d2c:	8082                	ret

0000000000011d2e <_ZNKSt7__cxx1112basic_stringIcSt11char_traitsIcESaIcEE5frontEv>:
   11d2e:	6108                	ld	a0,0(a0)
   11d30:	8082                	ret

0000000000011d32 <_ZNSt7__cxx1112basic_stringIcSt11char_traitsIcESaIcEE4backEv>:
   11d32:	651c                	ld	a5,8(a0)
   11d34:	6108                	ld	a0,0(a0)
   11d36:	17fd                	addi	a5,a5,-1
   11d38:	953e                	add	a0,a0,a5
   11d3a:	8082                	ret

0000000000011d3c <_ZNKSt7__cxx1112basic_stringIcSt11char_traitsIcESaIcEE4backEv>:
   11d3c:	651c                	ld	a5,8(a0)
   11d3e:	6108                	ld	a0,0(a0)
   11d40:	17fd                	addi	a5,a5,-1
   11d42:	953e                	add	a0,a0,a5
   11d44:	8082                	ret

0000000000011d46 <_ZNSt7__cxx1112basic_stringIcSt11char_traitsIcESaIcEE9push_backEc>:
   11d46:	6114                	ld	a3,0(a0)
   11d48:	7179                	addi	sp,sp,-48
   11d4a:	ec26                	sd	s1,24(sp)
   11d4c:	e84a                	sd	s2,16(sp)
   11d4e:	f406                	sd	ra,40(sp)
   11d50:	f022                	sd	s0,32(sp)
   11d52:	01050713          	addi	a4,a0,16
   11d56:	6504                	ld	s1,8(a0)
   11d58:	892e                	mv	s2,a1
   11d5a:	47bd                	li	a5,15
   11d5c:	00e68363          	beq	a3,a4,11d62 <_ZNSt7__cxx1112basic_stringIcSt11char_traitsIcESaIcEE9push_backEc+0x1c>
   11d60:	691c                	ld	a5,16(a0)
   11d62:	00148413          	addi	s0,s1,1
   11d66:	0087fa63          	bgeu	a5,s0,11d7a <_ZNSt7__cxx1112basic_stringIcSt11char_traitsIcESaIcEE9push_backEc+0x34>
   11d6a:	4705                	li	a4,1
   11d6c:	4681                	li	a3,0
   11d6e:	4601                	li	a2,0
   11d70:	85a6                	mv	a1,s1
   11d72:	e42a                	sd	a0,8(sp)
   11d74:	be1ff0ef          	jal	11954 <_ZNSt7__cxx1112basic_stringIcSt11char_traitsIcESaIcEE9_M_mutateEmmPKcm>
   11d78:	6522                	ld	a0,8(sp)
   11d7a:	611c                	ld	a5,0(a0)
   11d7c:	97a6                	add	a5,a5,s1
   11d7e:	01278023          	sb	s2,0(a5)
   11d82:	611c                	ld	a5,0(a0)
   11d84:	e500                	sd	s0,8(a0)
   11d86:	97a2                	add	a5,a5,s0
   11d88:	00078023          	sb	zero,0(a5)
   11d8c:	70a2                	ld	ra,40(sp)
   11d8e:	7402                	ld	s0,32(sp)
   11d90:	64e2                	ld	s1,24(sp)
   11d92:	6942                	ld	s2,16(sp)
   11d94:	6145                	addi	sp,sp,48
   11d96:	8082                	ret

0000000000011d98 <_ZNSt7__cxx1112basic_stringIcSt11char_traitsIcESaIcEEpLEc>:
   11d98:	1101                	addi	sp,sp,-32
   11d9a:	ec06                	sd	ra,24(sp)
   11d9c:	e42a                	sd	a0,8(sp)
   11d9e:	fa9ff0ef          	jal	11d46 <_ZNSt7__cxx1112basic_stringIcSt11char_traitsIcESaIcEE9push_backEc>
   11da2:	60e2                	ld	ra,24(sp)
   11da4:	6522                	ld	a0,8(sp)
   11da6:	6105                	addi	sp,sp,32
   11da8:	8082                	ret

0000000000011daa <_ZNSt7__cxx1112basic_stringIcSt11char_traitsIcESaIcEE6assignERKS4_>:
   11daa:	1101                	addi	sp,sp,-32
   11dac:	ec06                	sd	ra,24(sp)
   11dae:	e42a                	sd	a0,8(sp)
   11db0:	b39ff0ef          	jal	118e8 <_ZNSt7__cxx1112basic_stringIcSt11char_traitsIcESaIcEE9_M_assignERKS4_>
   11db4:	60e2                	ld	ra,24(sp)
   11db6:	6522                	ld	a0,8(sp)
   11db8:	6105                	addi	sp,sp,32
   11dba:	8082                	ret

0000000000011dbc <_ZNSt7__cxx1112basic_stringIcSt11char_traitsIcESaIcEE6assignEOS4_>:
   11dbc:	b399                	j	11b02 <_ZNSt7__cxx1112basic_stringIcSt11char_traitsIcESaIcEEaSEOS4_>

0000000000011dbe <_ZNSt7__cxx1112basic_stringIcSt11char_traitsIcESaIcEE5eraseEmm>:
   11dbe:	7179                	addi	sp,sp,-48
   11dc0:	ec26                	sd	s1,24(sp)
   11dc2:	84b2                	mv	s1,a2
   11dc4:	0002a637          	lui	a2,0x2a
   11dc8:	63860613          	addi	a2,a2,1592 # 2a638 <__clzdi2+0x368>
   11dcc:	f022                	sd	s0,32(sp)
   11dce:	e42e                	sd	a1,8(sp)
   11dd0:	f406                	sd	ra,40(sp)
   11dd2:	842a                	mv	s0,a0
   11dd4:	a0bff0ef          	jal	117de <_ZNKSt7__cxx1112basic_stringIcSt11char_traitsIcESaIcEE8_M_checkEmPKc>
   11dd8:	57fd                	li	a5,-1
   11dda:	65a2                	ld	a1,8(sp)
   11ddc:	00f49d63          	bne	s1,a5,11df6 <_ZNSt7__cxx1112basic_stringIcSt11char_traitsIcESaIcEE5eraseEmm+0x38>
   11de0:	601c                	ld	a5,0(s0)
   11de2:	e40c                	sd	a1,8(s0)
   11de4:	97ae                	add	a5,a5,a1
   11de6:	00078023          	sb	zero,0(a5)
   11dea:	70a2                	ld	ra,40(sp)
   11dec:	8522                	mv	a0,s0
   11dee:	7402                	ld	s0,32(sp)
   11df0:	64e2                	ld	s1,24(sp)
   11df2:	6145                	addi	sp,sp,48
   11df4:	8082                	ret
   11df6:	d8f5                	beqz	s1,11dea <_ZNSt7__cxx1112basic_stringIcSt11char_traitsIcESaIcEE5eraseEmm+0x2c>
   11df8:	6410                	ld	a2,8(s0)
   11dfa:	8e0d                	sub	a2,a2,a1
   11dfc:	00c4f363          	bgeu	s1,a2,11e02 <_ZNSt7__cxx1112basic_stringIcSt11char_traitsIcESaIcEE5eraseEmm+0x44>
   11e00:	8626                	mv	a2,s1
   11e02:	8522                	mv	a0,s0
   11e04:	bebff0ef          	jal	119ee <_ZNSt7__cxx1112basic_stringIcSt11char_traitsIcESaIcEE8_M_eraseEmm>
   11e08:	b7cd                	j	11dea <_ZNSt7__cxx1112basic_stringIcSt11char_traitsIcESaIcEE5eraseEmm+0x2c>

0000000000011e0a <_ZNSt7__cxx1112basic_stringIcSt11char_traitsIcESaIcEE5eraseEN9__gnu_cxx17__normal_iteratorIPKcS4_EE>:
   11e0a:	611c                	ld	a5,0(a0)
   11e0c:	1101                	addi	sp,sp,-32
   11e0e:	e822                	sd	s0,16(sp)
   11e10:	40f58433          	sub	s0,a1,a5
   11e14:	85a2                	mv	a1,s0
   11e16:	4605                	li	a2,1
   11e18:	e426                	sd	s1,8(sp)
   11e1a:	ec06                	sd	ra,24(sp)
   11e1c:	84aa                	mv	s1,a0
   11e1e:	bd1ff0ef          	jal	119ee <_ZNSt7__cxx1112basic_stringIcSt11char_traitsIcESaIcEE8_M_eraseEmm>
   11e22:	6088                	ld	a0,0(s1)
   11e24:	60e2                	ld	ra,24(sp)
   11e26:	64a2                	ld	s1,8(sp)
   11e28:	9522                	add	a0,a0,s0
   11e2a:	6442                	ld	s0,16(sp)
   11e2c:	6105                	addi	sp,sp,32
   11e2e:	8082                	ret

0000000000011e30 <_ZNSt7__cxx1112basic_stringIcSt11char_traitsIcESaIcEE5eraseEN9__gnu_cxx17__normal_iteratorIPKcS4_EES9_>:
   11e30:	611c                	ld	a5,0(a0)
   11e32:	6518                	ld	a4,8(a0)
   11e34:	1101                	addi	sp,sp,-32
   11e36:	e822                	sd	s0,16(sp)
   11e38:	e426                	sd	s1,8(sp)
   11e3a:	ec06                	sd	ra,24(sp)
   11e3c:	40f584b3          	sub	s1,a1,a5
   11e40:	97ba                	add	a5,a5,a4
   11e42:	842a                	mv	s0,a0
   11e44:	00f61c63          	bne	a2,a5,11e5c <_ZNSt7__cxx1112basic_stringIcSt11char_traitsIcESaIcEE5eraseEN9__gnu_cxx17__normal_iteratorIPKcS4_EES9_+0x2c>
   11e48:	e504                	sd	s1,8(a0)
   11e4a:	00058023          	sb	zero,0(a1)
   11e4e:	6008                	ld	a0,0(s0)
   11e50:	60e2                	ld	ra,24(sp)
   11e52:	6442                	ld	s0,16(sp)
   11e54:	9526                	add	a0,a0,s1
   11e56:	64a2                	ld	s1,8(sp)
   11e58:	6105                	addi	sp,sp,32
   11e5a:	8082                	ret
   11e5c:	8e0d                	sub	a2,a2,a1
   11e5e:	85a6                	mv	a1,s1
   11e60:	b8fff0ef          	jal	119ee <_ZNSt7__cxx1112basic_stringIcSt11char_traitsIcESaIcEE8_M_eraseEmm>
   11e64:	b7ed                	j	11e4e <_ZNSt7__cxx1112basic_stringIcSt11char_traitsIcESaIcEE5eraseEN9__gnu_cxx17__normal_iteratorIPKcS4_EES9_+0x1e>

0000000000011e66 <_ZNSt7__cxx1112basic_stringIcSt11char_traitsIcESaIcEE8pop_backEv>:
   11e66:	650c                	ld	a1,8(a0)
   11e68:	1141                	addi	sp,sp,-16
   11e6a:	4605                	li	a2,1
   11e6c:	15fd                	addi	a1,a1,-1
   11e6e:	e406                	sd	ra,8(sp)
   11e70:	b7fff0ef          	jal	119ee <_ZNSt7__cxx1112basic_stringIcSt11char_traitsIcESaIcEE8_M_eraseEmm>
   11e74:	60a2                	ld	ra,8(sp)
   11e76:	0141                	addi	sp,sp,16
   11e78:	8082                	ret

0000000000011e7a <_ZNSt7__cxx1112basic_stringIcSt11char_traitsIcESaIcEE14_M_replace_auxEmmmc>:
   11e7a:	7139                	addi	sp,sp,-64
   11e7c:	f426                	sd	s1,40(sp)
   11e7e:	f04a                	sd	s2,32(sp)
   11e80:	84b6                	mv	s1,a3
   11e82:	8932                	mv	s2,a2
   11e84:	0002a6b7          	lui	a3,0x2a
   11e88:	e852                	sd	s4,16(sp)
   11e8a:	8626                	mv	a2,s1
   11e8c:	8a2e                	mv	s4,a1
   11e8e:	65068693          	addi	a3,a3,1616 # 2a650 <__clzdi2+0x380>
   11e92:	85ca                	mv	a1,s2
   11e94:	f822                	sd	s0,48(sp)
   11e96:	e456                	sd	s5,8(sp)
   11e98:	842a                	mv	s0,a0
   11e9a:	8aba                	mv	s5,a4
   11e9c:	fc06                	sd	ra,56(sp)
   11e9e:	ec4e                	sd	s3,24(sp)
   11ea0:	95fff0ef          	jal	117fe <_ZNKSt7__cxx1112basic_stringIcSt11char_traitsIcESaIcEE15_M_check_lengthEmmPKc>
   11ea4:	6008                	ld	a0,0(s0)
   11ea6:	01040713          	addi	a4,s0,16
   11eaa:	6410                	ld	a2,8(s0)
   11eac:	47bd                	li	a5,15
   11eae:	00e50363          	beq	a0,a4,11eb4 <_ZNSt7__cxx1112basic_stringIcSt11char_traitsIcESaIcEE14_M_replace_auxEmmmc+0x3a>
   11eb2:	681c                	ld	a5,16(s0)
   11eb4:	412489b3          	sub	s3,s1,s2
   11eb8:	99b2                	add	s3,s3,a2
   11eba:	0537e563          	bltu	a5,s3,11f04 <_ZNSt7__cxx1112basic_stringIcSt11char_traitsIcESaIcEE14_M_replace_auxEmmmc+0x8a>
   11ebe:	014907b3          	add	a5,s2,s4
   11ec2:	8e1d                	sub	a2,a2,a5
   11ec4:	ca09                	beqz	a2,11ed6 <_ZNSt7__cxx1112basic_stringIcSt11char_traitsIcESaIcEE14_M_replace_auxEmmmc+0x5c>
   11ec6:	00990863          	beq	s2,s1,11ed6 <_ZNSt7__cxx1112basic_stringIcSt11char_traitsIcESaIcEE14_M_replace_auxEmmmc+0x5c>
   11eca:	9552                	add	a0,a0,s4
   11ecc:	012505b3          	add	a1,a0,s2
   11ed0:	9526                	add	a0,a0,s1
   11ed2:	979ff0ef          	jal	1184a <_ZNSt7__cxx1112basic_stringIcSt11char_traitsIcESaIcEE7_S_moveEPcPKcm>
   11ed6:	c499                	beqz	s1,11ee4 <_ZNSt7__cxx1112basic_stringIcSt11char_traitsIcESaIcEE14_M_replace_auxEmmmc+0x6a>
   11ed8:	6008                	ld	a0,0(s0)
   11eda:	8656                	mv	a2,s5
   11edc:	85a6                	mv	a1,s1
   11ede:	9552                	add	a0,a0,s4
   11ee0:	983ff0ef          	jal	11862 <_ZNSt7__cxx1112basic_stringIcSt11char_traitsIcESaIcEE9_S_assignEPcmc>
   11ee4:	601c                	ld	a5,0(s0)
   11ee6:	01343423          	sd	s3,8(s0)
   11eea:	8522                	mv	a0,s0
   11eec:	97ce                	add	a5,a5,s3
   11eee:	00078023          	sb	zero,0(a5)
   11ef2:	70e2                	ld	ra,56(sp)
   11ef4:	7442                	ld	s0,48(sp)
   11ef6:	74a2                	ld	s1,40(sp)
   11ef8:	7902                	ld	s2,32(sp)
   11efa:	69e2                	ld	s3,24(sp)
   11efc:	6a42                	ld	s4,16(sp)
   11efe:	6aa2                	ld	s5,8(sp)
   11f00:	6121                	addi	sp,sp,64
   11f02:	8082                	ret
   11f04:	8726                	mv	a4,s1
   11f06:	4681                	li	a3,0
   11f08:	864a                	mv	a2,s2
   11f0a:	85d2                	mv	a1,s4
   11f0c:	8522                	mv	a0,s0
   11f0e:	a47ff0ef          	jal	11954 <_ZNSt7__cxx1112basic_stringIcSt11char_traitsIcESaIcEE9_M_mutateEmmPKcm>
   11f12:	b7d1                	j	11ed6 <_ZNSt7__cxx1112basic_stringIcSt11char_traitsIcESaIcEE14_M_replace_auxEmmmc+0x5c>

0000000000011f14 <_ZNSt7__cxx1112basic_stringIcSt11char_traitsIcESaIcEE6appendEmc>:
   11f14:	86ae                	mv	a3,a1
   11f16:	650c                	ld	a1,8(a0)
   11f18:	8732                	mv	a4,a2
   11f1a:	4601                	li	a2,0
   11f1c:	bfb9                	j	11e7a <_ZNSt7__cxx1112basic_stringIcSt11char_traitsIcESaIcEE14_M_replace_auxEmmmc>

0000000000011f1e <_ZNSt7__cxx1112basic_stringIcSt11char_traitsIcESaIcEE6resizeEmc>:
   11f1e:	651c                	ld	a5,8(a0)
   11f20:	00b7f463          	bgeu	a5,a1,11f28 <_ZNSt7__cxx1112basic_stringIcSt11char_traitsIcESaIcEE6resizeEmc+0xa>
   11f24:	8d9d                	sub	a1,a1,a5
   11f26:	b7fd                	j	11f14 <_ZNSt7__cxx1112basic_stringIcSt11char_traitsIcESaIcEE6appendEmc>
   11f28:	00f5f763          	bgeu	a1,a5,11f36 <_ZNSt7__cxx1112basic_stringIcSt11char_traitsIcESaIcEE6resizeEmc+0x18>
   11f2c:	611c                	ld	a5,0(a0)
   11f2e:	e50c                	sd	a1,8(a0)
   11f30:	97ae                	add	a5,a5,a1
   11f32:	00078023          	sb	zero,0(a5)
   11f36:	8082                	ret

0000000000011f38 <_ZNSt7__cxx1112basic_stringIcSt11char_traitsIcESaIcEE6resizeEm>:
   11f38:	4601                	li	a2,0
   11f3a:	b7d5                	j	11f1e <_ZNSt7__cxx1112basic_stringIcSt11char_traitsIcESaIcEE6resizeEmc>

0000000000011f3c <_ZNSt7__cxx1112basic_stringIcSt11char_traitsIcESaIcEE6assignEmc>:
   11f3c:	8732                	mv	a4,a2
   11f3e:	6510                	ld	a2,8(a0)
   11f40:	86ae                	mv	a3,a1
   11f42:	4581                	li	a1,0
   11f44:	bf1d                	j	11e7a <_ZNSt7__cxx1112basic_stringIcSt11char_traitsIcESaIcEE14_M_replace_auxEmmmc>

0000000000011f46 <_ZNSt7__cxx1112basic_stringIcSt11char_traitsIcESaIcEEaSEc>:
   11f46:	1141                	addi	sp,sp,-16
   11f48:	862e                	mv	a2,a1
   11f4a:	4585                	li	a1,1
   11f4c:	e022                	sd	s0,0(sp)
   11f4e:	e406                	sd	ra,8(sp)
   11f50:	842a                	mv	s0,a0
   11f52:	febff0ef          	jal	11f3c <_ZNSt7__cxx1112basic_stringIcSt11char_traitsIcESaIcEE6assignEmc>
   11f56:	60a2                	ld	ra,8(sp)
   11f58:	8522                	mv	a0,s0
   11f5a:	6402                	ld	s0,0(sp)
   11f5c:	0141                	addi	sp,sp,16
   11f5e:	8082                	ret

0000000000011f60 <_ZNSt7__cxx1112basic_stringIcSt11char_traitsIcESaIcEE6insertEmmc>:
   11f60:	7179                	addi	sp,sp,-48
   11f62:	ec26                	sd	s1,24(sp)
   11f64:	84b2                	mv	s1,a2
   11f66:	0002a637          	lui	a2,0x2a
   11f6a:	67060613          	addi	a2,a2,1648 # 2a670 <__clzdi2+0x3a0>
   11f6e:	f022                	sd	s0,32(sp)
   11f70:	f406                	sd	ra,40(sp)
   11f72:	842a                	mv	s0,a0
   11f74:	e436                	sd	a3,8(sp)
   11f76:	869ff0ef          	jal	117de <_ZNKSt7__cxx1112basic_stringIcSt11char_traitsIcESaIcEE8_M_checkEmPKc>
   11f7a:	85aa                	mv	a1,a0
   11f7c:	8522                	mv	a0,s0
   11f7e:	7402                	ld	s0,32(sp)
   11f80:	6722                	ld	a4,8(sp)
   11f82:	70a2                	ld	ra,40(sp)
   11f84:	86a6                	mv	a3,s1
   11f86:	64e2                	ld	s1,24(sp)
   11f88:	4601                	li	a2,0
   11f8a:	6145                	addi	sp,sp,48
   11f8c:	b5fd                	j	11e7a <_ZNSt7__cxx1112basic_stringIcSt11char_traitsIcESaIcEE14_M_replace_auxEmmmc>

0000000000011f8e <_ZNSt7__cxx1112basic_stringIcSt11char_traitsIcESaIcEE6insertEN9__gnu_cxx17__normal_iteratorIPKcS4_EEc>:
   11f8e:	611c                	ld	a5,0(a0)
   11f90:	1101                	addi	sp,sp,-32
   11f92:	e822                	sd	s0,16(sp)
   11f94:	40f58433          	sub	s0,a1,a5
   11f98:	8732                	mv	a4,a2
   11f9a:	85a2                	mv	a1,s0
   11f9c:	4685                	li	a3,1
   11f9e:	4601                	li	a2,0
   11fa0:	e426                	sd	s1,8(sp)
   11fa2:	ec06                	sd	ra,24(sp)
   11fa4:	84aa                	mv	s1,a0
   11fa6:	ed5ff0ef          	jal	11e7a <_ZNSt7__cxx1112basic_stringIcSt11char_traitsIcESaIcEE14_M_replace_auxEmmmc>
   11faa:	6088                	ld	a0,0(s1)
   11fac:	60e2                	ld	ra,24(sp)
   11fae:	64a2                	ld	s1,8(sp)
   11fb0:	9522                	add	a0,a0,s0
   11fb2:	6442                	ld	s0,16(sp)
   11fb4:	6105                	addi	sp,sp,32
   11fb6:	8082                	ret

0000000000011fb8 <_ZNSt7__cxx1112basic_stringIcSt11char_traitsIcESaIcEE7replaceEmmmc>:
   11fb8:	7179                	addi	sp,sp,-48
   11fba:	ec26                	sd	s1,24(sp)
   11fbc:	84b2                	mv	s1,a2
   11fbe:	0002a637          	lui	a2,0x2a
   11fc2:	68860613          	addi	a2,a2,1672 # 2a688 <__clzdi2+0x3b8>
   11fc6:	f022                	sd	s0,32(sp)
   11fc8:	e84a                	sd	s2,16(sp)
   11fca:	842a                	mv	s0,a0
   11fcc:	892e                	mv	s2,a1
   11fce:	e436                	sd	a3,8(sp)
   11fd0:	e03a                	sd	a4,0(sp)
   11fd2:	f406                	sd	ra,40(sp)
   11fd4:	80bff0ef          	jal	117de <_ZNKSt7__cxx1112basic_stringIcSt11char_traitsIcESaIcEE8_M_checkEmPKc>
   11fd8:	6410                	ld	a2,8(s0)
   11fda:	6702                	ld	a4,0(sp)
   11fdc:	66a2                	ld	a3,8(sp)
   11fde:	41260633          	sub	a2,a2,s2
   11fe2:	00c4f363          	bgeu	s1,a2,11fe8 <_ZNSt7__cxx1112basic_stringIcSt11char_traitsIcESaIcEE7replaceEmmmc+0x30>
   11fe6:	8626                	mv	a2,s1
   11fe8:	85aa                	mv	a1,a0
   11fea:	8522                	mv	a0,s0
   11fec:	7402                	ld	s0,32(sp)
   11fee:	70a2                	ld	ra,40(sp)
   11ff0:	64e2                	ld	s1,24(sp)
   11ff2:	6942                	ld	s2,16(sp)
   11ff4:	6145                	addi	sp,sp,48
   11ff6:	b551                	j	11e7a <_ZNSt7__cxx1112basic_stringIcSt11char_traitsIcESaIcEE14_M_replace_auxEmmmc>

0000000000011ff8 <_ZNSt7__cxx1112basic_stringIcSt11char_traitsIcESaIcEE7replaceEN9__gnu_cxx17__normal_iteratorIPKcS4_EES9_mc>:
   11ff8:	611c                	ld	a5,0(a0)
   11ffa:	8e0d                	sub	a2,a2,a1
   11ffc:	8d9d                	sub	a1,a1,a5
   11ffe:	bdb5                	j	11e7a <_ZNSt7__cxx1112basic_stringIcSt11char_traitsIcESaIcEE14_M_replace_auxEmmmc>

0000000000012000 <_ZNSt7__cxx1112basic_stringIcSt11char_traitsIcESaIcEE6insertEN9__gnu_cxx17__normal_iteratorIPKcS4_EEmc>:
   12000:	1101                	addi	sp,sp,-32
   12002:	e822                	sd	s0,16(sp)
   12004:	6100                	ld	s0,0(a0)
   12006:	8736                	mv	a4,a3
   12008:	86b2                	mv	a3,a2
   1200a:	862e                	mv	a2,a1
   1200c:	e426                	sd	s1,8(sp)
   1200e:	ec06                	sd	ra,24(sp)
   12010:	84aa                	mv	s1,a0
   12012:	40858433          	sub	s0,a1,s0
   12016:	fe3ff0ef          	jal	11ff8 <_ZNSt7__cxx1112basic_stringIcSt11char_traitsIcESaIcEE7replaceEN9__gnu_cxx17__normal_iteratorIPKcS4_EES9_mc>
   1201a:	6088                	ld	a0,0(s1)
   1201c:	60e2                	ld	ra,24(sp)
   1201e:	64a2                	ld	s1,8(sp)
   12020:	9522                	add	a0,a0,s0
   12022:	6442                	ld	s0,16(sp)
   12024:	6105                	addi	sp,sp,32
   12026:	8082                	ret

0000000000012028 <_ZNSt7__cxx1112basic_stringIcSt11char_traitsIcESaIcEE10_M_replaceEmmPKcm>:
   12028:	715d                	addi	sp,sp,-80
   1202a:	fc26                	sd	s1,56(sp)
   1202c:	ec56                	sd	s5,24(sp)
   1202e:	84b2                	mv	s1,a2
   12030:	8ab6                	mv	s5,a3
   12032:	0002a6b7          	lui	a3,0x2a
   12036:	863a                	mv	a2,a4
   12038:	e0a2                	sd	s0,64(sp)
   1203a:	f052                	sd	s4,32(sp)
   1203c:	842a                	mv	s0,a0
   1203e:	6a068693          	addi	a3,a3,1696 # 2a6a0 <__clzdi2+0x3d0>
   12042:	8a2e                	mv	s4,a1
   12044:	85a6                	mv	a1,s1
   12046:	f84a                	sd	s2,48(sp)
   12048:	e03a                	sd	a4,0(sp)
   1204a:	e486                	sd	ra,72(sp)
   1204c:	f44e                	sd	s3,40(sp)
   1204e:	fb0ff0ef          	jal	117fe <_ZNKSt7__cxx1112basic_stringIcSt11char_traitsIcESaIcEE15_M_check_lengthEmmPKc>
   12052:	00043903          	ld	s2,0(s0)
   12056:	01040613          	addi	a2,s0,16
   1205a:	641c                	ld	a5,8(s0)
   1205c:	6702                	ld	a4,0(sp)
   1205e:	46bd                	li	a3,15
   12060:	00c90363          	beq	s2,a2,12066 <_ZNSt7__cxx1112basic_stringIcSt11char_traitsIcESaIcEE10_M_replaceEmmPKcm+0x3e>
   12064:	6814                	ld	a3,16(s0)
   12066:	409709b3          	sub	s3,a4,s1
   1206a:	99be                	add	s3,s3,a5
   1206c:	0736e863          	bltu	a3,s3,120dc <_ZNSt7__cxx1112basic_stringIcSt11char_traitsIcESaIcEE10_M_replaceEmmPKcm+0xb4>
   12070:	9952                	add	s2,s2,s4
   12072:	9a26                	add	s4,s4,s1
   12074:	414787b3          	sub	a5,a5,s4
   12078:	85d6                	mv	a1,s5
   1207a:	8522                	mv	a0,s0
   1207c:	e43a                	sd	a4,8(sp)
   1207e:	e03e                	sd	a5,0(sp)
   12080:	fa4ff0ef          	jal	11824 <_ZNKSt7__cxx1112basic_stringIcSt11char_traitsIcESaIcEE11_M_disjunctEPKc>
   12084:	6782                	ld	a5,0(sp)
   12086:	6722                	ld	a4,8(sp)
   12088:	c139                	beqz	a0,120ce <_ZNSt7__cxx1112basic_stringIcSt11char_traitsIcESaIcEE10_M_replaceEmmPKcm+0xa6>
   1208a:	cf81                	beqz	a5,120a2 <_ZNSt7__cxx1112basic_stringIcSt11char_traitsIcESaIcEE10_M_replaceEmmPKcm+0x7a>
   1208c:	00e48b63          	beq	s1,a4,120a2 <_ZNSt7__cxx1112basic_stringIcSt11char_traitsIcESaIcEE10_M_replaceEmmPKcm+0x7a>
   12090:	00e90533          	add	a0,s2,a4
   12094:	863e                	mv	a2,a5
   12096:	009905b3          	add	a1,s2,s1
   1209a:	e03a                	sd	a4,0(sp)
   1209c:	faeff0ef          	jal	1184a <_ZNSt7__cxx1112basic_stringIcSt11char_traitsIcESaIcEE7_S_moveEPcPKcm>
   120a0:	6702                	ld	a4,0(sp)
   120a2:	c711                	beqz	a4,120ae <_ZNSt7__cxx1112basic_stringIcSt11char_traitsIcESaIcEE10_M_replaceEmmPKcm+0x86>
   120a4:	863a                	mv	a2,a4
   120a6:	85d6                	mv	a1,s5
   120a8:	854a                	mv	a0,s2
   120aa:	f8eff0ef          	jal	11838 <_ZNSt7__cxx1112basic_stringIcSt11char_traitsIcESaIcEE7_S_copyEPcPKcm>
   120ae:	601c                	ld	a5,0(s0)
   120b0:	01343423          	sd	s3,8(s0)
   120b4:	8522                	mv	a0,s0
   120b6:	97ce                	add	a5,a5,s3
   120b8:	00078023          	sb	zero,0(a5)
   120bc:	60a6                	ld	ra,72(sp)
   120be:	6406                	ld	s0,64(sp)
   120c0:	74e2                	ld	s1,56(sp)
   120c2:	7942                	ld	s2,48(sp)
   120c4:	79a2                	ld	s3,40(sp)
   120c6:	7a02                	ld	s4,32(sp)
   120c8:	6ae2                	ld	s5,24(sp)
   120ca:	6161                	addi	sp,sp,80
   120cc:	8082                	ret
   120ce:	86d6                	mv	a3,s5
   120d0:	8626                	mv	a2,s1
   120d2:	85ca                	mv	a1,s2
   120d4:	8522                	mv	a0,s0
   120d6:	862fe0ef          	jal	10138 <_ZNSt7__cxx1112basic_stringIcSt11char_traitsIcESaIcEE15_M_replace_coldEPcmPKcmm>
   120da:	bfd1                	j	120ae <_ZNSt7__cxx1112basic_stringIcSt11char_traitsIcESaIcEE10_M_replaceEmmPKcm+0x86>
   120dc:	86d6                	mv	a3,s5
   120de:	8626                	mv	a2,s1
   120e0:	85d2                	mv	a1,s4
   120e2:	8522                	mv	a0,s0
   120e4:	871ff0ef          	jal	11954 <_ZNSt7__cxx1112basic_stringIcSt11char_traitsIcESaIcEE9_M_mutateEmmPKcm>
   120e8:	b7d9                	j	120ae <_ZNSt7__cxx1112basic_stringIcSt11char_traitsIcESaIcEE10_M_replaceEmmPKcm+0x86>

00000000000120ea <_ZNSt7__cxx1112basic_stringIcSt11char_traitsIcESaIcEE6assignERKS4_mm>:
   120ea:	7139                	addi	sp,sp,-64
   120ec:	f822                	sd	s0,48(sp)
   120ee:	ec4e                	sd	s3,24(sp)
   120f0:	842e                	mv	s0,a1
   120f2:	89b2                	mv	s3,a2
   120f4:	0002a637          	lui	a2,0x2a
   120f8:	f426                	sd	s1,40(sp)
   120fa:	e852                	sd	s4,16(sp)
   120fc:	e456                	sd	s5,8(sp)
   120fe:	00853a03          	ld	s4,8(a0)
   12102:	0005ba83          	ld	s5,0(a1)
   12106:	84aa                	mv	s1,a0
   12108:	6c060613          	addi	a2,a2,1728 # 2a6c0 <__clzdi2+0x3f0>
   1210c:	85ce                	mv	a1,s3
   1210e:	8522                	mv	a0,s0
   12110:	f04a                	sd	s2,32(sp)
   12112:	fc06                	sd	ra,56(sp)
   12114:	8936                	mv	s2,a3
   12116:	ec8ff0ef          	jal	117de <_ZNKSt7__cxx1112basic_stringIcSt11char_traitsIcESaIcEE8_M_checkEmPKc>
   1211a:	6418                	ld	a4,8(s0)
   1211c:	41370733          	sub	a4,a4,s3
   12120:	00e97363          	bgeu	s2,a4,12126 <_ZNSt7__cxx1112basic_stringIcSt11char_traitsIcESaIcEE6assignERKS4_mm+0x3c>
   12124:	874a                	mv	a4,s2
   12126:	7442                	ld	s0,48(sp)
   12128:	70e2                	ld	ra,56(sp)
   1212a:	7902                	ld	s2,32(sp)
   1212c:	69e2                	ld	s3,24(sp)
   1212e:	00aa86b3          	add	a3,s5,a0
   12132:	8652                	mv	a2,s4
   12134:	6aa2                	ld	s5,8(sp)
   12136:	6a42                	ld	s4,16(sp)
   12138:	8526                	mv	a0,s1
   1213a:	74a2                	ld	s1,40(sp)
   1213c:	4581                	li	a1,0
   1213e:	6121                	addi	sp,sp,64
   12140:	b5e5                	j	12028 <_ZNSt7__cxx1112basic_stringIcSt11char_traitsIcESaIcEE10_M_replaceEmmPKcm>

0000000000012142 <_ZNSt7__cxx1112basic_stringIcSt11char_traitsIcESaIcEE6assignEPKcm>:
   12142:	8732                	mv	a4,a2
   12144:	6510                	ld	a2,8(a0)
   12146:	86ae                	mv	a3,a1
   12148:	4581                	li	a1,0
   1214a:	bdf9                	j	12028 <_ZNSt7__cxx1112basic_stringIcSt11char_traitsIcESaIcEE10_M_replaceEmmPKcm>

000000000001214c <_ZNSt7__cxx1112basic_stringIcSt11char_traitsIcESaIcEEaSESt16initializer_listIcE>:
   1214c:	1101                	addi	sp,sp,-32
   1214e:	e822                	sd	s0,16(sp)
   12150:	ec06                	sd	ra,24(sp)
   12152:	842a                	mv	s0,a0
   12154:	fefff0ef          	jal	12142 <_ZNSt7__cxx1112basic_stringIcSt11char_traitsIcESaIcEE6assignEPKcm>
   12158:	60e2                	ld	ra,24(sp)
   1215a:	8522                	mv	a0,s0
   1215c:	6442                	ld	s0,16(sp)
   1215e:	6105                	addi	sp,sp,32
   12160:	8082                	ret

0000000000012162 <_ZNSt7__cxx1112basic_stringIcSt11char_traitsIcESaIcEE6assignEPKc>:
   12162:	1101                	addi	sp,sp,-32
   12164:	e822                	sd	s0,16(sp)
   12166:	842a                	mv	s0,a0
   12168:	852e                	mv	a0,a1
   1216a:	ec06                	sd	ra,24(sp)
   1216c:	e42e                	sd	a1,8(sp)
   1216e:	7c20e0ef          	jal	20930 <strlen>
   12172:	6410                	ld	a2,8(s0)
   12174:	872a                	mv	a4,a0
   12176:	8522                	mv	a0,s0
   12178:	6442                	ld	s0,16(sp)
   1217a:	66a2                	ld	a3,8(sp)
   1217c:	60e2                	ld	ra,24(sp)
   1217e:	4581                	li	a1,0
   12180:	6105                	addi	sp,sp,32
   12182:	b55d                	j	12028 <_ZNSt7__cxx1112basic_stringIcSt11char_traitsIcESaIcEE10_M_replaceEmmPKcm>

0000000000012184 <_ZNSt7__cxx1112basic_stringIcSt11char_traitsIcESaIcEEaSEPKc>:
   12184:	bff9                	j	12162 <_ZNSt7__cxx1112basic_stringIcSt11char_traitsIcESaIcEE6assignEPKc>

0000000000012186 <_ZNSt7__cxx1112basic_stringIcSt11char_traitsIcESaIcEE7replaceEmmPKcm>:
   12186:	7179                	addi	sp,sp,-48
   12188:	ec26                	sd	s1,24(sp)
   1218a:	84b2                	mv	s1,a2
   1218c:	0002a637          	lui	a2,0x2a
   12190:	68860613          	addi	a2,a2,1672 # 2a688 <__clzdi2+0x3b8>
   12194:	f022                	sd	s0,32(sp)
   12196:	e84a                	sd	s2,16(sp)
   12198:	842a                	mv	s0,a0
   1219a:	892e                	mv	s2,a1
   1219c:	e436                	sd	a3,8(sp)
   1219e:	e03a                	sd	a4,0(sp)
   121a0:	f406                	sd	ra,40(sp)
   121a2:	e3cff0ef          	jal	117de <_ZNKSt7__cxx1112basic_stringIcSt11char_traitsIcESaIcEE8_M_checkEmPKc>
   121a6:	6410                	ld	a2,8(s0)
   121a8:	6702                	ld	a4,0(sp)
   121aa:	66a2                	ld	a3,8(sp)
   121ac:	41260633          	sub	a2,a2,s2
   121b0:	00c4f363          	bgeu	s1,a2,121b6 <_ZNSt7__cxx1112basic_stringIcSt11char_traitsIcESaIcEE7replaceEmmPKcm+0x30>
   121b4:	8626                	mv	a2,s1
   121b6:	85aa                	mv	a1,a0
   121b8:	8522                	mv	a0,s0
   121ba:	7402                	ld	s0,32(sp)
   121bc:	70a2                	ld	ra,40(sp)
   121be:	64e2                	ld	s1,24(sp)
   121c0:	6942                	ld	s2,16(sp)
   121c2:	6145                	addi	sp,sp,48
   121c4:	b595                	j	12028 <_ZNSt7__cxx1112basic_stringIcSt11char_traitsIcESaIcEE10_M_replaceEmmPKcm>

00000000000121c6 <_ZNSt7__cxx1112basic_stringIcSt11char_traitsIcESaIcEE6insertEmRKS4_>:
   121c6:	6618                	ld	a4,8(a2)
   121c8:	6214                	ld	a3,0(a2)
   121ca:	4601                	li	a2,0
   121cc:	bf6d                	j	12186 <_ZNSt7__cxx1112basic_stringIcSt11char_traitsIcESaIcEE7replaceEmmPKcm>

00000000000121ce <_ZNSt7__cxx1112basic_stringIcSt11char_traitsIcESaIcEE6insertEmRKS4_mm>:
   121ce:	7139                	addi	sp,sp,-64
   121d0:	f822                	sd	s0,48(sp)
   121d2:	f04a                	sd	s2,32(sp)
   121d4:	8432                	mv	s0,a2
   121d6:	00063903          	ld	s2,0(a2)
   121da:	0002a637          	lui	a2,0x2a
   121de:	ec4e                	sd	s3,24(sp)
   121e0:	e852                	sd	s4,16(sp)
   121e2:	89aa                	mv	s3,a0
   121e4:	8a2e                	mv	s4,a1
   121e6:	67060613          	addi	a2,a2,1648 # 2a670 <__clzdi2+0x3a0>
   121ea:	85b6                	mv	a1,a3
   121ec:	8522                	mv	a0,s0
   121ee:	f426                	sd	s1,40(sp)
   121f0:	e43a                	sd	a4,8(sp)
   121f2:	84b6                	mv	s1,a3
   121f4:	fc06                	sd	ra,56(sp)
   121f6:	de8ff0ef          	jal	117de <_ZNKSt7__cxx1112basic_stringIcSt11char_traitsIcESaIcEE8_M_checkEmPKc>
   121fa:	641c                	ld	a5,8(s0)
   121fc:	6722                	ld	a4,8(sp)
   121fe:	8f85                	sub	a5,a5,s1
   12200:	00f77363          	bgeu	a4,a5,12206 <_ZNSt7__cxx1112basic_stringIcSt11char_traitsIcESaIcEE6insertEmRKS4_mm+0x38>
   12204:	87ba                	mv	a5,a4
   12206:	7442                	ld	s0,48(sp)
   12208:	70e2                	ld	ra,56(sp)
   1220a:	74a2                	ld	s1,40(sp)
   1220c:	00a906b3          	add	a3,s2,a0
   12210:	85d2                	mv	a1,s4
   12212:	7902                	ld	s2,32(sp)
   12214:	6a42                	ld	s4,16(sp)
   12216:	854e                	mv	a0,s3
   12218:	69e2                	ld	s3,24(sp)
   1221a:	873e                	mv	a4,a5
   1221c:	4601                	li	a2,0
   1221e:	6121                	addi	sp,sp,64
   12220:	b79d                	j	12186 <_ZNSt7__cxx1112basic_stringIcSt11char_traitsIcESaIcEE7replaceEmmPKcm>

0000000000012222 <_ZNSt7__cxx1112basic_stringIcSt11char_traitsIcESaIcEE6insertEmPKcm>:
   12222:	8736                	mv	a4,a3
   12224:	86b2                	mv	a3,a2
   12226:	4601                	li	a2,0
   12228:	bfb9                	j	12186 <_ZNSt7__cxx1112basic_stringIcSt11char_traitsIcESaIcEE7replaceEmmPKcm>

000000000001222a <_ZNSt7__cxx1112basic_stringIcSt11char_traitsIcESaIcEE6insertEN9__gnu_cxx17__normal_iteratorIPcS4_EESt16initializer_listIcE>:
   1222a:	611c                	ld	a5,0(a0)
   1222c:	1141                	addi	sp,sp,-16
   1222e:	8d9d                	sub	a1,a1,a5
   12230:	0141                	addi	sp,sp,16
   12232:	bfc5                	j	12222 <_ZNSt7__cxx1112basic_stringIcSt11char_traitsIcESaIcEE6insertEmPKcm>

0000000000012234 <_ZNSt7__cxx1112basic_stringIcSt11char_traitsIcESaIcEE6insertEmPKc>:
   12234:	1101                	addi	sp,sp,-32
   12236:	e822                	sd	s0,16(sp)
   12238:	842a                	mv	s0,a0
   1223a:	8532                	mv	a0,a2
   1223c:	ec06                	sd	ra,24(sp)
   1223e:	e42e                	sd	a1,8(sp)
   12240:	e032                	sd	a2,0(sp)
   12242:	6ee0e0ef          	jal	20930 <strlen>
   12246:	872a                	mv	a4,a0
   12248:	8522                	mv	a0,s0
   1224a:	6442                	ld	s0,16(sp)
   1224c:	6682                	ld	a3,0(sp)
   1224e:	65a2                	ld	a1,8(sp)
   12250:	60e2                	ld	ra,24(sp)
   12252:	4601                	li	a2,0
   12254:	6105                	addi	sp,sp,32
   12256:	bf05                	j	12186 <_ZNSt7__cxx1112basic_stringIcSt11char_traitsIcESaIcEE7replaceEmmPKcm>

0000000000012258 <_ZNSt7__cxx1112basic_stringIcSt11char_traitsIcESaIcEE7replaceEmmRKS4_>:
   12258:	6698                	ld	a4,8(a3)
   1225a:	6294                	ld	a3,0(a3)
   1225c:	b72d                	j	12186 <_ZNSt7__cxx1112basic_stringIcSt11char_traitsIcESaIcEE7replaceEmmPKcm>

000000000001225e <_ZNSt7__cxx1112basic_stringIcSt11char_traitsIcESaIcEE7replaceEmmRKS4_mm>:
   1225e:	7139                	addi	sp,sp,-64
   12260:	e852                	sd	s4,16(sp)
   12262:	8a32                	mv	s4,a2
   12264:	0002a637          	lui	a2,0x2a
   12268:	f04a                	sd	s2,32(sp)
   1226a:	ec4e                	sd	s3,24(sp)
   1226c:	68860613          	addi	a2,a2,1672 # 2a688 <__clzdi2+0x3b8>
   12270:	892a                	mv	s2,a0
   12272:	89ae                	mv	s3,a1
   12274:	8536                	mv	a0,a3
   12276:	85ba                	mv	a1,a4
   12278:	f822                	sd	s0,48(sp)
   1227a:	f426                	sd	s1,40(sp)
   1227c:	8436                	mv	s0,a3
   1227e:	e43e                	sd	a5,8(sp)
   12280:	e03a                	sd	a4,0(sp)
   12282:	6284                	ld	s1,0(a3)
   12284:	fc06                	sd	ra,56(sp)
   12286:	d58ff0ef          	jal	117de <_ZNKSt7__cxx1112basic_stringIcSt11char_traitsIcESaIcEE8_M_checkEmPKc>
   1228a:	6410                	ld	a2,8(s0)
   1228c:	6702                	ld	a4,0(sp)
   1228e:	67a2                	ld	a5,8(sp)
   12290:	40e60733          	sub	a4,a2,a4
   12294:	00e7f363          	bgeu	a5,a4,1229a <_ZNSt7__cxx1112basic_stringIcSt11char_traitsIcESaIcEE7replaceEmmRKS4_mm+0x3c>
   12298:	873e                	mv	a4,a5
   1229a:	7442                	ld	s0,48(sp)
   1229c:	70e2                	ld	ra,56(sp)
   1229e:	00a486b3          	add	a3,s1,a0
   122a2:	8652                	mv	a2,s4
   122a4:	74a2                	ld	s1,40(sp)
   122a6:	6a42                	ld	s4,16(sp)
   122a8:	85ce                	mv	a1,s3
   122aa:	854a                	mv	a0,s2
   122ac:	69e2                	ld	s3,24(sp)
   122ae:	7902                	ld	s2,32(sp)
   122b0:	6121                	addi	sp,sp,64
   122b2:	bdd1                	j	12186 <_ZNSt7__cxx1112basic_stringIcSt11char_traitsIcESaIcEE7replaceEmmPKcm>

00000000000122b4 <_ZNSt7__cxx1112basic_stringIcSt11char_traitsIcESaIcEE7replaceEmmPKc>:
   122b4:	7179                	addi	sp,sp,-48
   122b6:	f022                	sd	s0,32(sp)
   122b8:	842a                	mv	s0,a0
   122ba:	8536                	mv	a0,a3
   122bc:	f406                	sd	ra,40(sp)
   122be:	ec2e                	sd	a1,24(sp)
   122c0:	e832                	sd	a2,16(sp)
   122c2:	e436                	sd	a3,8(sp)
   122c4:	66c0e0ef          	jal	20930 <strlen>
   122c8:	872a                	mv	a4,a0
   122ca:	8522                	mv	a0,s0
   122cc:	7402                	ld	s0,32(sp)
   122ce:	66a2                	ld	a3,8(sp)
   122d0:	6642                	ld	a2,16(sp)
   122d2:	65e2                	ld	a1,24(sp)
   122d4:	70a2                	ld	ra,40(sp)
   122d6:	6145                	addi	sp,sp,48
   122d8:	b57d                	j	12186 <_ZNSt7__cxx1112basic_stringIcSt11char_traitsIcESaIcEE7replaceEmmPKcm>

00000000000122da <_ZNSt7__cxx1112basic_stringIcSt11char_traitsIcESaIcEE7replaceEN9__gnu_cxx17__normal_iteratorIPKcS4_EES9_S8_m>:
   122da:	611c                	ld	a5,0(a0)
   122dc:	8e0d                	sub	a2,a2,a1
   122de:	8d9d                	sub	a1,a1,a5
   122e0:	b55d                	j	12186 <_ZNSt7__cxx1112basic_stringIcSt11char_traitsIcESaIcEE7replaceEmmPKcm>

00000000000122e2 <_ZNSt7__cxx1112basic_stringIcSt11char_traitsIcESaIcEE7replaceEN9__gnu_cxx17__normal_iteratorIPKcS4_EES9_RKS4_>:
   122e2:	6698                	ld	a4,8(a3)
   122e4:	6294                	ld	a3,0(a3)
   122e6:	bfd5                	j	122da <_ZNSt7__cxx1112basic_stringIcSt11char_traitsIcESaIcEE7replaceEN9__gnu_cxx17__normal_iteratorIPKcS4_EES9_S8_m>

00000000000122e8 <_ZNSt7__cxx1112basic_stringIcSt11char_traitsIcESaIcEE7replaceEN9__gnu_cxx17__normal_iteratorIPKcS4_EES9_S8_>:
   122e8:	7179                	addi	sp,sp,-48
   122ea:	f022                	sd	s0,32(sp)
   122ec:	842a                	mv	s0,a0
   122ee:	8536                	mv	a0,a3
   122f0:	f406                	sd	ra,40(sp)
   122f2:	ec2e                	sd	a1,24(sp)
   122f4:	e832                	sd	a2,16(sp)
   122f6:	e436                	sd	a3,8(sp)
   122f8:	6380e0ef          	jal	20930 <strlen>
   122fc:	872a                	mv	a4,a0
   122fe:	8522                	mv	a0,s0
   12300:	7402                	ld	s0,32(sp)
   12302:	66a2                	ld	a3,8(sp)
   12304:	6642                	ld	a2,16(sp)
   12306:	65e2                	ld	a1,24(sp)
   12308:	70a2                	ld	ra,40(sp)
   1230a:	6145                	addi	sp,sp,48
   1230c:	b7f9                	j	122da <_ZNSt7__cxx1112basic_stringIcSt11char_traitsIcESaIcEE7replaceEN9__gnu_cxx17__normal_iteratorIPKcS4_EES9_S8_m>

000000000001230e <_ZNSt7__cxx1112basic_stringIcSt11char_traitsIcESaIcEE7replaceEN9__gnu_cxx17__normal_iteratorIPKcS4_EES9_St16initializer_listIcE>:
   1230e:	1141                	addi	sp,sp,-16
   12310:	0141                	addi	sp,sp,16
   12312:	b7e1                	j	122da <_ZNSt7__cxx1112basic_stringIcSt11char_traitsIcESaIcEE7replaceEN9__gnu_cxx17__normal_iteratorIPKcS4_EES9_S8_m>

0000000000012314 <_ZNSt7__cxx1112basic_stringIcSt11char_traitsIcESaIcEE7replaceEN9__gnu_cxx17__normal_iteratorIPKcS4_EES9_PcSA_>:
   12314:	611c                	ld	a5,0(a0)
   12316:	8e0d                	sub	a2,a2,a1
   12318:	8f15                	sub	a4,a4,a3
   1231a:	8d9d                	sub	a1,a1,a5
   1231c:	b5ad                	j	12186 <_ZNSt7__cxx1112basic_stringIcSt11char_traitsIcESaIcEE7replaceEmmPKcm>

000000000001231e <_ZNSt7__cxx1112basic_stringIcSt11char_traitsIcESaIcEE7replaceEN9__gnu_cxx17__normal_iteratorIPKcS4_EES9_S8_S8_>:
   1231e:	611c                	ld	a5,0(a0)
   12320:	8e0d                	sub	a2,a2,a1
   12322:	8f15                	sub	a4,a4,a3
   12324:	8d9d                	sub	a1,a1,a5
   12326:	b585                	j	12186 <_ZNSt7__cxx1112basic_stringIcSt11char_traitsIcESaIcEE7replaceEmmPKcm>

0000000000012328 <_ZNSt7__cxx1112basic_stringIcSt11char_traitsIcESaIcEE6insertEN9__gnu_cxx17__normal_iteratorIPKcS4_EESt16initializer_listIcE>:
   12328:	7179                	addi	sp,sp,-48
   1232a:	f022                	sd	s0,32(sp)
   1232c:	6100                	ld	s0,0(a0)
   1232e:	00d60733          	add	a4,a2,a3
   12332:	86b2                	mv	a3,a2
   12334:	862e                	mv	a2,a1
   12336:	ec26                	sd	s1,24(sp)
   12338:	f406                	sd	ra,40(sp)
   1233a:	84aa                	mv	s1,a0
   1233c:	40858433          	sub	s0,a1,s0
   12340:	fdfff0ef          	jal	1231e <_ZNSt7__cxx1112basic_stringIcSt11char_traitsIcESaIcEE7replaceEN9__gnu_cxx17__normal_iteratorIPKcS4_EES9_S8_S8_>
   12344:	6088                	ld	a0,0(s1)
   12346:	70a2                	ld	ra,40(sp)
   12348:	64e2                	ld	s1,24(sp)
   1234a:	9522                	add	a0,a0,s0
   1234c:	7402                	ld	s0,32(sp)
   1234e:	6145                	addi	sp,sp,48
   12350:	8082                	ret

0000000000012352 <_ZNSt7__cxx1112basic_stringIcSt11char_traitsIcESaIcEE7replaceEN9__gnu_cxx17__normal_iteratorIPKcS4_EES9_NS6_IPcS4_EESB_>:
   12352:	611c                	ld	a5,0(a0)
   12354:	8e0d                	sub	a2,a2,a1
   12356:	8f15                	sub	a4,a4,a3
   12358:	8d9d                	sub	a1,a1,a5
   1235a:	b535                	j	12186 <_ZNSt7__cxx1112basic_stringIcSt11char_traitsIcESaIcEE7replaceEmmPKcm>

000000000001235c <_ZNSt7__cxx1112basic_stringIcSt11char_traitsIcESaIcEE7replaceEN9__gnu_cxx17__normal_iteratorIPKcS4_EES9_S9_S9_>:
   1235c:	611c                	ld	a5,0(a0)
   1235e:	8e0d                	sub	a2,a2,a1
   12360:	8f15                	sub	a4,a4,a3
   12362:	8d9d                	sub	a1,a1,a5
   12364:	b50d                	j	12186 <_ZNSt7__cxx1112basic_stringIcSt11char_traitsIcESaIcEE7replaceEmmPKcm>

0000000000012366 <_ZNSt7__cxx1112basic_stringIcSt11char_traitsIcESaIcEE9_M_appendEPKcm>:
   12366:	1101                	addi	sp,sp,-32
   12368:	651c                	ld	a5,8(a0)
   1236a:	e822                	sd	s0,16(sp)
   1236c:	842a                	mv	s0,a0
   1236e:	6108                	ld	a0,0(a0)
   12370:	ec06                	sd	ra,24(sp)
   12372:	e426                	sd	s1,8(sp)
   12374:	01040693          	addi	a3,s0,16
   12378:	473d                	li	a4,15
   1237a:	00d50363          	beq	a0,a3,12380 <_ZNSt7__cxx1112basic_stringIcSt11char_traitsIcESaIcEE9_M_appendEPKcm+0x1a>
   1237e:	6818                	ld	a4,16(s0)
   12380:	00f604b3          	add	s1,a2,a5
   12384:	02976163          	bltu	a4,s1,123a6 <_ZNSt7__cxx1112basic_stringIcSt11char_traitsIcESaIcEE9_M_appendEPKcm+0x40>
   12388:	c601                	beqz	a2,12390 <_ZNSt7__cxx1112basic_stringIcSt11char_traitsIcESaIcEE9_M_appendEPKcm+0x2a>
   1238a:	953e                	add	a0,a0,a5
   1238c:	cacff0ef          	jal	11838 <_ZNSt7__cxx1112basic_stringIcSt11char_traitsIcESaIcEE7_S_copyEPcPKcm>
   12390:	601c                	ld	a5,0(s0)
   12392:	e404                	sd	s1,8(s0)
   12394:	8522                	mv	a0,s0
   12396:	97a6                	add	a5,a5,s1
   12398:	00078023          	sb	zero,0(a5)
   1239c:	60e2                	ld	ra,24(sp)
   1239e:	6442                	ld	s0,16(sp)
   123a0:	64a2                	ld	s1,8(sp)
   123a2:	6105                	addi	sp,sp,32
   123a4:	8082                	ret
   123a6:	8732                	mv	a4,a2
   123a8:	86ae                	mv	a3,a1
   123aa:	4601                	li	a2,0
   123ac:	85be                	mv	a1,a5
   123ae:	8522                	mv	a0,s0
   123b0:	da4ff0ef          	jal	11954 <_ZNSt7__cxx1112basic_stringIcSt11char_traitsIcESaIcEE9_M_mutateEmmPKcm>
   123b4:	bff1                	j	12390 <_ZNSt7__cxx1112basic_stringIcSt11char_traitsIcESaIcEE9_M_appendEPKcm+0x2a>

00000000000123b6 <_ZNSt7__cxx1112basic_stringIcSt11char_traitsIcESaIcEE6appendEPKcm>:
   123b6:	1101                	addi	sp,sp,-32
   123b8:	0002a6b7          	lui	a3,0x2a
   123bc:	e822                	sd	s0,16(sp)
   123be:	6d868693          	addi	a3,a3,1752 # 2a6d8 <__clzdi2+0x408>
   123c2:	842e                	mv	s0,a1
   123c4:	4581                	li	a1,0
   123c6:	ec06                	sd	ra,24(sp)
   123c8:	e42a                	sd	a0,8(sp)
   123ca:	e032                	sd	a2,0(sp)
   123cc:	c32ff0ef          	jal	117fe <_ZNKSt7__cxx1112basic_stringIcSt11char_traitsIcESaIcEE15_M_check_lengthEmmPKc>
   123d0:	85a2                	mv	a1,s0
   123d2:	6442                	ld	s0,16(sp)
   123d4:	6602                	ld	a2,0(sp)
   123d6:	6522                	ld	a0,8(sp)
   123d8:	60e2                	ld	ra,24(sp)
   123da:	6105                	addi	sp,sp,32
   123dc:	b769                	j	12366 <_ZNSt7__cxx1112basic_stringIcSt11char_traitsIcESaIcEE9_M_appendEPKcm>

00000000000123de <_ZNSt7__cxx1112basic_stringIcSt11char_traitsIcESaIcEEpLESt16initializer_listIcE>:
   123de:	1141                	addi	sp,sp,-16
   123e0:	0141                	addi	sp,sp,16
   123e2:	bfd1                	j	123b6 <_ZNSt7__cxx1112basic_stringIcSt11char_traitsIcESaIcEE6appendEPKcm>

00000000000123e4 <_ZNSt7__cxx1112basic_stringIcSt11char_traitsIcESaIcEE6appendERKS4_>:
   123e4:	6590                	ld	a2,8(a1)
   123e6:	618c                	ld	a1,0(a1)
   123e8:	b7f9                	j	123b6 <_ZNSt7__cxx1112basic_stringIcSt11char_traitsIcESaIcEE6appendEPKcm>

00000000000123ea <_ZNSt7__cxx1112basic_stringIcSt11char_traitsIcESaIcEEpLERKS4_>:
   123ea:	bfed                	j	123e4 <_ZNSt7__cxx1112basic_stringIcSt11char_traitsIcESaIcEE6appendERKS4_>

00000000000123ec <_ZNSt7__cxx1112basic_stringIcSt11char_traitsIcESaIcEE6appendERKS4_mm>:
   123ec:	7139                	addi	sp,sp,-64
   123ee:	f822                	sd	s0,48(sp)
   123f0:	f426                	sd	s1,40(sp)
   123f2:	842e                	mv	s0,a1
   123f4:	84b2                	mv	s1,a2
   123f6:	0002a637          	lui	a2,0x2a
   123fa:	f04a                	sd	s2,32(sp)
   123fc:	ec4e                	sd	s3,24(sp)
   123fe:	0005b903          	ld	s2,0(a1)
   12402:	6d860613          	addi	a2,a2,1752 # 2a6d8 <__clzdi2+0x408>
   12406:	89aa                	mv	s3,a0
   12408:	85a6                	mv	a1,s1
   1240a:	8522                	mv	a0,s0
   1240c:	e436                	sd	a3,8(sp)
   1240e:	fc06                	sd	ra,56(sp)
   12410:	bceff0ef          	jal	117de <_ZNKSt7__cxx1112basic_stringIcSt11char_traitsIcESaIcEE8_M_checkEmPKc>
   12414:	6410                	ld	a2,8(s0)
   12416:	66a2                	ld	a3,8(sp)
   12418:	8e05                	sub	a2,a2,s1
   1241a:	00c6f363          	bgeu	a3,a2,12420 <_ZNSt7__cxx1112basic_stringIcSt11char_traitsIcESaIcEE6appendERKS4_mm+0x34>
   1241e:	8636                	mv	a2,a3
   12420:	7442                	ld	s0,48(sp)
   12422:	70e2                	ld	ra,56(sp)
   12424:	74a2                	ld	s1,40(sp)
   12426:	00a905b3          	add	a1,s2,a0
   1242a:	7902                	ld	s2,32(sp)
   1242c:	854e                	mv	a0,s3
   1242e:	69e2                	ld	s3,24(sp)
   12430:	6121                	addi	sp,sp,64
   12432:	b751                	j	123b6 <_ZNSt7__cxx1112basic_stringIcSt11char_traitsIcESaIcEE6appendEPKcm>

0000000000012434 <_ZNSt7__cxx1112basic_stringIcSt11char_traitsIcESaIcEE6appendESt16initializer_listIcE>:
   12434:	1141                	addi	sp,sp,-16
   12436:	0141                	addi	sp,sp,16
   12438:	bfbd                	j	123b6 <_ZNSt7__cxx1112basic_stringIcSt11char_traitsIcESaIcEE6appendEPKcm>

000000000001243a <_ZSt12__str_concatINSt7__cxx1112basic_stringIcSt11char_traitsIcESaIcEEEET_PKNS6_10value_typeENS6_9size_typeES9_SA_RKNS6_14allocator_typeE.isra.0>:
   1243a:	7139                	addi	sp,sp,-64
   1243c:	f822                	sd	s0,48(sp)
   1243e:	f426                	sd	s1,40(sp)
   12440:	f04a                	sd	s2,32(sp)
   12442:	ec4e                	sd	s3,24(sp)
   12444:	fc06                	sd	ra,56(sp)
   12446:	01050793          	addi	a5,a0,16
   1244a:	892e                	mv	s2,a1
   1244c:	e11c                	sd	a5,0(a0)
   1244e:	00053423          	sd	zero,8(a0)
   12452:	00050823          	sb	zero,16(a0)
   12456:	00e605b3          	add	a1,a2,a4
   1245a:	842a                	mv	s0,a0
   1245c:	89b6                	mv	s3,a3
   1245e:	84ba                	mv	s1,a4
   12460:	e432                	sd	a2,8(sp)
   12462:	f7eff0ef          	jal	11be0 <_ZNSt7__cxx1112basic_stringIcSt11char_traitsIcESaIcEE7reserveEm>
   12466:	6622                	ld	a2,8(sp)
   12468:	85ca                	mv	a1,s2
   1246a:	8522                	mv	a0,s0
   1246c:	f4bff0ef          	jal	123b6 <_ZNSt7__cxx1112basic_stringIcSt11char_traitsIcESaIcEE6appendEPKcm>
   12470:	8626                	mv	a2,s1
   12472:	85ce                	mv	a1,s3
   12474:	8522                	mv	a0,s0
   12476:	f41ff0ef          	jal	123b6 <_ZNSt7__cxx1112basic_stringIcSt11char_traitsIcESaIcEE6appendEPKcm>
   1247a:	a801                	j	1248a <_ZSt12__str_concatINSt7__cxx1112basic_stringIcSt11char_traitsIcESaIcEEEET_PKNS6_10value_typeENS6_9size_typeES9_SA_RKNS6_14allocator_typeE.isra.0+0x50>
   1247c:	84aa                	mv	s1,a0
   1247e:	8522                	mv	a0,s0
   12480:	b3eff0ef          	jal	117be <_ZNSt7__cxx1112basic_stringIcSt11char_traitsIcESaIcEE10_M_disposeEv>
   12484:	8526                	mv	a0,s1
   12486:	3bf0a0ef          	jal	1d044 <_Unwind_Resume>
   1248a:	70e2                	ld	ra,56(sp)
   1248c:	8522                	mv	a0,s0
   1248e:	7442                	ld	s0,48(sp)
   12490:	74a2                	ld	s1,40(sp)
   12492:	7902                	ld	s2,32(sp)
   12494:	69e2                	ld	s3,24(sp)
   12496:	6121                	addi	sp,sp,64
   12498:	8082                	ret

000000000001249a <_ZNSt7__cxx1112basic_stringIcSt11char_traitsIcESaIcEE6appendEPKc>:
   1249a:	7179                	addi	sp,sp,-48
   1249c:	f022                	sd	s0,32(sp)
   1249e:	842a                	mv	s0,a0
   124a0:	852e                	mv	a0,a1
   124a2:	f406                	sd	ra,40(sp)
   124a4:	ec26                	sd	s1,24(sp)
   124a6:	84ae                	mv	s1,a1
   124a8:	4880e0ef          	jal	20930 <strlen>
   124ac:	0002a6b7          	lui	a3,0x2a
   124b0:	862a                	mv	a2,a0
   124b2:	e42a                	sd	a0,8(sp)
   124b4:	4581                	li	a1,0
   124b6:	8522                	mv	a0,s0
   124b8:	6d868693          	addi	a3,a3,1752 # 2a6d8 <__clzdi2+0x408>
   124bc:	b42ff0ef          	jal	117fe <_ZNKSt7__cxx1112basic_stringIcSt11char_traitsIcESaIcEE15_M_check_lengthEmmPKc>
   124c0:	8522                	mv	a0,s0
   124c2:	7402                	ld	s0,32(sp)
   124c4:	6622                	ld	a2,8(sp)
   124c6:	70a2                	ld	ra,40(sp)
   124c8:	85a6                	mv	a1,s1
   124ca:	64e2                	ld	s1,24(sp)
   124cc:	6145                	addi	sp,sp,48
   124ce:	bd61                	j	12366 <_ZNSt7__cxx1112basic_stringIcSt11char_traitsIcESaIcEE9_M_appendEPKcm>

00000000000124d0 <_ZNSt7__cxx1112basic_stringIcSt11char_traitsIcESaIcEEpLEPKc>:
   124d0:	b7e9                	j	1249a <_ZNSt7__cxx1112basic_stringIcSt11char_traitsIcESaIcEE6appendEPKc>

00000000000124d2 <_ZNKSt7__cxx1112basic_stringIcSt11char_traitsIcESaIcEE4copyEPcmm>:
   124d2:	7139                	addi	sp,sp,-64
   124d4:	f04a                	sd	s2,32(sp)
   124d6:	8932                	mv	s2,a2
   124d8:	0002a637          	lui	a2,0x2a
   124dc:	ec4e                	sd	s3,24(sp)
   124de:	6f060613          	addi	a2,a2,1776 # 2a6f0 <__clzdi2+0x420>
   124e2:	89ae                	mv	s3,a1
   124e4:	85b6                	mv	a1,a3
   124e6:	f822                	sd	s0,48(sp)
   124e8:	f426                	sd	s1,40(sp)
   124ea:	e436                	sd	a3,8(sp)
   124ec:	84aa                	mv	s1,a0
   124ee:	fc06                	sd	ra,56(sp)
   124f0:	aeeff0ef          	jal	117de <_ZNKSt7__cxx1112basic_stringIcSt11char_traitsIcESaIcEE8_M_checkEmPKc>
   124f4:	66a2                	ld	a3,8(sp)
   124f6:	6480                	ld	s0,8(s1)
   124f8:	8c15                	sub	s0,s0,a3
   124fa:	00897363          	bgeu	s2,s0,12500 <_ZNKSt7__cxx1112basic_stringIcSt11char_traitsIcESaIcEE4copyEPcmm+0x2e>
   124fe:	844a                	mv	s0,s2
   12500:	c419                	beqz	s0,1250e <_ZNKSt7__cxx1112basic_stringIcSt11char_traitsIcESaIcEE4copyEPcmm+0x3c>
   12502:	608c                	ld	a1,0(s1)
   12504:	8622                	mv	a2,s0
   12506:	854e                	mv	a0,s3
   12508:	95b6                	add	a1,a1,a3
   1250a:	b2eff0ef          	jal	11838 <_ZNSt7__cxx1112basic_stringIcSt11char_traitsIcESaIcEE7_S_copyEPcPKcm>
   1250e:	70e2                	ld	ra,56(sp)
   12510:	8522                	mv	a0,s0
   12512:	7442                	ld	s0,48(sp)
   12514:	74a2                	ld	s1,40(sp)
   12516:	7902                	ld	s2,32(sp)
   12518:	69e2                	ld	s3,24(sp)
   1251a:	6121                	addi	sp,sp,64
   1251c:	8082                	ret

000000000001251e <_ZNSt7__cxx1112basic_stringIcSt11char_traitsIcESaIcEE4swapERS4_>:
   1251e:	10b50163          	beq	a0,a1,12620 <_ZNSt7__cxx1112basic_stringIcSt11char_traitsIcESaIcEE4swapERS4_+0x102>
   12522:	715d                	addi	sp,sp,-80
   12524:	ec56                	sd	s5,24(sp)
   12526:	00053a83          	ld	s5,0(a0)
   1252a:	e0a2                	sd	s0,64(sp)
   1252c:	fc26                	sd	s1,56(sp)
   1252e:	f84a                	sd	s2,48(sp)
   12530:	f44e                	sd	s3,40(sp)
   12532:	f052                	sd	s4,32(sp)
   12534:	e486                	sd	ra,72(sp)
   12536:	e85a                	sd	s6,16(sp)
   12538:	01050913          	addi	s2,a0,16
   1253c:	0005ba03          	ld	s4,0(a1)
   12540:	842e                	mv	s0,a1
   12542:	84aa                	mv	s1,a0
   12544:	01058993          	addi	s3,a1,16
   12548:	05591163          	bne	s2,s5,1258a <_ZNSt7__cxx1112basic_stringIcSt11char_traitsIcESaIcEE4swapERS4_+0x6c>
   1254c:	6510                	ld	a2,8(a0)
   1254e:	05499f63          	bne	s3,s4,125ac <_ZNSt7__cxx1112basic_stringIcSt11char_traitsIcESaIcEE4swapERS4_+0x8e>
   12552:	0085ba03          	ld	s4,8(a1)
   12556:	ee2d                	bnez	a2,125d0 <_ZNSt7__cxx1112basic_stringIcSt11char_traitsIcESaIcEE4swapERS4_+0xb2>
   12558:	060a0763          	beqz	s4,125c6 <_ZNSt7__cxx1112basic_stringIcSt11char_traitsIcESaIcEE4swapERS4_+0xa8>
   1255c:	001a0613          	addi	a2,s4,1
   12560:	85ce                	mv	a1,s3
   12562:	854a                	mv	a0,s2
   12564:	9bcff0ef          	jal	11720 <_ZNSt11char_traitsIcE4copyEPcPKcm.isra.0>
   12568:	641c                	ld	a5,8(s0)
   1256a:	e49c                	sd	a5,8(s1)
   1256c:	601c                	ld	a5,0(s0)
   1256e:	00043423          	sd	zero,8(s0)
   12572:	00078023          	sb	zero,0(a5)
   12576:	60a6                	ld	ra,72(sp)
   12578:	6406                	ld	s0,64(sp)
   1257a:	74e2                	ld	s1,56(sp)
   1257c:	7942                	ld	s2,48(sp)
   1257e:	79a2                	ld	s3,40(sp)
   12580:	7a02                	ld	s4,32(sp)
   12582:	6ae2                	ld	s5,24(sp)
   12584:	6b42                	ld	s6,16(sp)
   12586:	6161                	addi	sp,sp,80
   12588:	8082                	ret
   1258a:	01053b03          	ld	s6,16(a0)
   1258e:	093a1263          	bne	s4,s3,12612 <_ZNSt7__cxx1112basic_stringIcSt11char_traitsIcESaIcEE4swapERS4_+0xf4>
   12592:	6590                	ld	a2,8(a1)
   12594:	854a                	mv	a0,s2
   12596:	85d2                	mv	a1,s4
   12598:	0605                	addi	a2,a2,1
   1259a:	986ff0ef          	jal	11720 <_ZNSt11char_traitsIcE4copyEPcPKcm.isra.0>
   1259e:	01543023          	sd	s5,0(s0)
   125a2:	0124b023          	sd	s2,0(s1)
   125a6:	01643823          	sd	s6,16(s0)
   125aa:	a831                	j	125c6 <_ZNSt7__cxx1112basic_stringIcSt11char_traitsIcESaIcEE4swapERS4_+0xa8>
   125ac:	0105ba83          	ld	s5,16(a1)
   125b0:	0605                	addi	a2,a2,1
   125b2:	85ca                	mv	a1,s2
   125b4:	854e                	mv	a0,s3
   125b6:	96aff0ef          	jal	11720 <_ZNSt11char_traitsIcE4copyEPcPKcm.isra.0>
   125ba:	0144b023          	sd	s4,0(s1)
   125be:	01343023          	sd	s3,0(s0)
   125c2:	0154b823          	sd	s5,16(s1)
   125c6:	6418                	ld	a4,8(s0)
   125c8:	649c                	ld	a5,8(s1)
   125ca:	e498                	sd	a4,8(s1)
   125cc:	e41c                	sd	a5,8(s0)
   125ce:	b765                	j	12576 <_ZNSt7__cxx1112basic_stringIcSt11char_traitsIcESaIcEE4swapERS4_+0x58>
   125d0:	00160a93          	addi	s5,a2,1
   125d4:	020a0463          	beqz	s4,125fc <_ZNSt7__cxx1112basic_stringIcSt11char_traitsIcESaIcEE4swapERS4_+0xde>
   125d8:	001a0613          	addi	a2,s4,1
   125dc:	85ce                	mv	a1,s3
   125de:	850a                	mv	a0,sp
   125e0:	940ff0ef          	jal	11720 <_ZNSt11char_traitsIcE4copyEPcPKcm.isra.0>
   125e4:	8656                	mv	a2,s5
   125e6:	85ca                	mv	a1,s2
   125e8:	854e                	mv	a0,s3
   125ea:	936ff0ef          	jal	11720 <_ZNSt11char_traitsIcE4copyEPcPKcm.isra.0>
   125ee:	001a0613          	addi	a2,s4,1
   125f2:	858a                	mv	a1,sp
   125f4:	854a                	mv	a0,s2
   125f6:	92aff0ef          	jal	11720 <_ZNSt11char_traitsIcE4copyEPcPKcm.isra.0>
   125fa:	b7f1                	j	125c6 <_ZNSt7__cxx1112basic_stringIcSt11char_traitsIcESaIcEE4swapERS4_+0xa8>
   125fc:	8656                	mv	a2,s5
   125fe:	85ca                	mv	a1,s2
   12600:	854e                	mv	a0,s3
   12602:	91eff0ef          	jal	11720 <_ZNSt11char_traitsIcE4copyEPcPKcm.isra.0>
   12606:	649c                	ld	a5,8(s1)
   12608:	e41c                	sd	a5,8(s0)
   1260a:	0004b423          	sd	zero,8(s1)
   1260e:	609c                	ld	a5,0(s1)
   12610:	b78d                	j	12572 <_ZNSt7__cxx1112basic_stringIcSt11char_traitsIcESaIcEE4swapERS4_+0x54>
   12612:	01453023          	sd	s4,0(a0)
   12616:	699c                	ld	a5,16(a1)
   12618:	0155b023          	sd	s5,0(a1)
   1261c:	e91c                	sd	a5,16(a0)
   1261e:	b761                	j	125a6 <_ZNSt7__cxx1112basic_stringIcSt11char_traitsIcESaIcEE4swapERS4_+0x88>
   12620:	8082                	ret

0000000000012622 <_ZNKSt7__cxx1112basic_stringIcSt11char_traitsIcESaIcEE5c_strEv>:
   12622:	6108                	ld	a0,0(a0)
   12624:	8082                	ret

0000000000012626 <_ZNKSt7__cxx1112basic_stringIcSt11char_traitsIcESaIcEE4dataEv>:
   12626:	6108                	ld	a0,0(a0)
   12628:	8082                	ret

000000000001262a <_ZNKSt7__cxx1112basic_stringIcSt11char_traitsIcESaIcEE13get_allocatorEv>:
   1262a:	8082                	ret

000000000001262c <_ZNKSt7__cxx1112basic_stringIcSt11char_traitsIcESaIcEE4findEPKcmm>:
   1262c:	651c                	ld	a5,8(a0)
   1262e:	e691                	bnez	a3,1263a <_ZNKSt7__cxx1112basic_stringIcSt11char_traitsIcESaIcEE4findEPKcmm+0xe>
   12630:	00c7f363          	bgeu	a5,a2,12636 <_ZNKSt7__cxx1112basic_stringIcSt11char_traitsIcESaIcEE4findEPKcmm+0xa>
   12634:	567d                	li	a2,-1
   12636:	8532                	mv	a0,a2
   12638:	8082                	ret
   1263a:	fef67de3          	bgeu	a2,a5,12634 <_ZNKSt7__cxx1112basic_stringIcSt11char_traitsIcESaIcEE4findEPKcmm+0x8>
   1263e:	7139                	addi	sp,sp,-64
   12640:	f426                	sd	s1,40(sp)
   12642:	f04a                	sd	s2,32(sp)
   12644:	ec4e                	sd	s3,24(sp)
   12646:	e852                	sd	s4,16(sp)
   12648:	00053983          	ld	s3,0(a0)
   1264c:	e05a                	sd	s6,0(sp)
   1264e:	fc06                	sd	ra,56(sp)
   12650:	f822                	sd	s0,48(sp)
   12652:	e456                	sd	s5,8(sp)
   12654:	0005ca83          	lbu	s5,0(a1)
   12658:	4a05                	li	s4,1
   1265a:	00f98b33          	add	s6,s3,a5
   1265e:	84b6                	mv	s1,a3
   12660:	892e                	mv	s2,a1
   12662:	00c98533          	add	a0,s3,a2
   12666:	8f91                	sub	a5,a5,a2
   12668:	40da0a33          	sub	s4,s4,a3
   1266c:	0097f463          	bgeu	a5,s1,12674 <_ZNKSt7__cxx1112basic_stringIcSt11char_traitsIcESaIcEE4findEPKcmm+0x48>
   12670:	567d                	li	a2,-1
   12672:	a839                	j	12690 <_ZNKSt7__cxx1112basic_stringIcSt11char_traitsIcESaIcEE4findEPKcmm+0x64>
   12674:	8656                	mv	a2,s5
   12676:	00fa05b3          	add	a1,s4,a5
   1267a:	8aeff0ef          	jal	11728 <_ZNSt11char_traitsIcE4findEPKcmRS1_.isra.0>
   1267e:	842a                	mv	s0,a0
   12680:	d965                	beqz	a0,12670 <_ZNKSt7__cxx1112basic_stringIcSt11char_traitsIcESaIcEE4findEPKcmm+0x44>
   12682:	8626                	mv	a2,s1
   12684:	85ca                	mv	a1,s2
   12686:	8b2ff0ef          	jal	11738 <_ZNSt11char_traitsIcE7compareEPKcS2_m>
   1268a:	ed11                	bnez	a0,126a6 <_ZNKSt7__cxx1112basic_stringIcSt11char_traitsIcESaIcEE4findEPKcmm+0x7a>
   1268c:	41340633          	sub	a2,s0,s3
   12690:	70e2                	ld	ra,56(sp)
   12692:	7442                	ld	s0,48(sp)
   12694:	74a2                	ld	s1,40(sp)
   12696:	7902                	ld	s2,32(sp)
   12698:	69e2                	ld	s3,24(sp)
   1269a:	6a42                	ld	s4,16(sp)
   1269c:	6aa2                	ld	s5,8(sp)
   1269e:	6b02                	ld	s6,0(sp)
   126a0:	8532                	mv	a0,a2
   126a2:	6121                	addi	sp,sp,64
   126a4:	8082                	ret
   126a6:	00140513          	addi	a0,s0,1
   126aa:	40ab07b3          	sub	a5,s6,a0
   126ae:	bf7d                	j	1266c <_ZNKSt7__cxx1112basic_stringIcSt11char_traitsIcESaIcEE4findEPKcmm+0x40>

00000000000126b0 <_ZNKSt7__cxx1112basic_stringIcSt11char_traitsIcESaIcEE4findERKS4_m>:
   126b0:	6594                	ld	a3,8(a1)
   126b2:	618c                	ld	a1,0(a1)
   126b4:	bfa5                	j	1262c <_ZNKSt7__cxx1112basic_stringIcSt11char_traitsIcESaIcEE4findEPKcmm>

00000000000126b6 <_ZNKSt7__cxx1112basic_stringIcSt11char_traitsIcESaIcEE4findEPKcm>:
   126b6:	1101                	addi	sp,sp,-32
   126b8:	e822                	sd	s0,16(sp)
   126ba:	842a                	mv	s0,a0
   126bc:	852e                	mv	a0,a1
   126be:	ec06                	sd	ra,24(sp)
   126c0:	e432                	sd	a2,8(sp)
   126c2:	e02e                	sd	a1,0(sp)
   126c4:	26c0e0ef          	jal	20930 <strlen>
   126c8:	86aa                	mv	a3,a0
   126ca:	8522                	mv	a0,s0
   126cc:	6442                	ld	s0,16(sp)
   126ce:	6622                	ld	a2,8(sp)
   126d0:	6582                	ld	a1,0(sp)
   126d2:	60e2                	ld	ra,24(sp)
   126d4:	6105                	addi	sp,sp,32
   126d6:	bf99                	j	1262c <_ZNKSt7__cxx1112basic_stringIcSt11char_traitsIcESaIcEE4findEPKcmm>

00000000000126d8 <_ZNKSt7__cxx1112basic_stringIcSt11char_traitsIcESaIcEE4findEcm>:
   126d8:	6518                	ld	a4,8(a0)
   126da:	02e67763          	bgeu	a2,a4,12708 <_ZNKSt7__cxx1112basic_stringIcSt11char_traitsIcESaIcEE4findEcm+0x30>
   126de:	1141                	addi	sp,sp,-16
   126e0:	e022                	sd	s0,0(sp)
   126e2:	6100                	ld	s0,0(a0)
   126e4:	87b2                	mv	a5,a2
   126e6:	862e                	mv	a2,a1
   126e8:	00f40533          	add	a0,s0,a5
   126ec:	40f705b3          	sub	a1,a4,a5
   126f0:	e406                	sd	ra,8(sp)
   126f2:	836ff0ef          	jal	11728 <_ZNSt11char_traitsIcE4findEPKcmRS1_.isra.0>
   126f6:	57fd                	li	a5,-1
   126f8:	c119                	beqz	a0,126fe <_ZNKSt7__cxx1112basic_stringIcSt11char_traitsIcESaIcEE4findEcm+0x26>
   126fa:	408507b3          	sub	a5,a0,s0
   126fe:	60a2                	ld	ra,8(sp)
   12700:	6402                	ld	s0,0(sp)
   12702:	853e                	mv	a0,a5
   12704:	0141                	addi	sp,sp,16
   12706:	8082                	ret
   12708:	57fd                	li	a5,-1
   1270a:	853e                	mv	a0,a5
   1270c:	8082                	ret

000000000001270e <_ZNKSt7__cxx1112basic_stringIcSt11char_traitsIcESaIcEE5rfindEPKcmm>:
   1270e:	7179                	addi	sp,sp,-48
   12710:	f022                	sd	s0,32(sp)
   12712:	6500                	ld	s0,8(a0)
   12714:	f406                	sd	ra,40(sp)
   12716:	ec26                	sd	s1,24(sp)
   12718:	e84a                	sd	s2,16(sp)
   1271a:	e44e                	sd	s3,8(sp)
   1271c:	02d46263          	bltu	s0,a3,12740 <_ZNKSt7__cxx1112basic_stringIcSt11char_traitsIcESaIcEE5rfindEPKcmm+0x32>
   12720:	8c15                	sub	s0,s0,a3
   12722:	00867363          	bgeu	a2,s0,12728 <_ZNKSt7__cxx1112basic_stringIcSt11char_traitsIcESaIcEE5rfindEPKcmm+0x1a>
   12726:	8432                	mv	s0,a2
   12728:	00053983          	ld	s3,0(a0)
   1272c:	84b6                	mv	s1,a3
   1272e:	892e                	mv	s2,a1
   12730:	8626                	mv	a2,s1
   12732:	85ca                	mv	a1,s2
   12734:	00898533          	add	a0,s3,s0
   12738:	800ff0ef          	jal	11738 <_ZNSt11char_traitsIcE7compareEPKcS2_m>
   1273c:	c119                	beqz	a0,12742 <_ZNKSt7__cxx1112basic_stringIcSt11char_traitsIcESaIcEE5rfindEPKcmm+0x34>
   1273e:	e811                	bnez	s0,12752 <_ZNKSt7__cxx1112basic_stringIcSt11char_traitsIcESaIcEE5rfindEPKcmm+0x44>
   12740:	547d                	li	s0,-1
   12742:	70a2                	ld	ra,40(sp)
   12744:	8522                	mv	a0,s0
   12746:	7402                	ld	s0,32(sp)
   12748:	64e2                	ld	s1,24(sp)
   1274a:	6942                	ld	s2,16(sp)
   1274c:	69a2                	ld	s3,8(sp)
   1274e:	6145                	addi	sp,sp,48
   12750:	8082                	ret
   12752:	147d                	addi	s0,s0,-1
   12754:	bff1                	j	12730 <_ZNKSt7__cxx1112basic_stringIcSt11char_traitsIcESaIcEE5rfindEPKcmm+0x22>

0000000000012756 <_ZNKSt7__cxx1112basic_stringIcSt11char_traitsIcESaIcEE5rfindERKS4_m>:
   12756:	6594                	ld	a3,8(a1)
   12758:	618c                	ld	a1,0(a1)
   1275a:	bf55                	j	1270e <_ZNKSt7__cxx1112basic_stringIcSt11char_traitsIcESaIcEE5rfindEPKcmm>

000000000001275c <_ZNKSt7__cxx1112basic_stringIcSt11char_traitsIcESaIcEE5rfindEPKcm>:
   1275c:	1101                	addi	sp,sp,-32
   1275e:	e822                	sd	s0,16(sp)
   12760:	842a                	mv	s0,a0
   12762:	852e                	mv	a0,a1
   12764:	ec06                	sd	ra,24(sp)
   12766:	e432                	sd	a2,8(sp)
   12768:	e02e                	sd	a1,0(sp)
   1276a:	1c60e0ef          	jal	20930 <strlen>
   1276e:	86aa                	mv	a3,a0
   12770:	8522                	mv	a0,s0
   12772:	6442                	ld	s0,16(sp)
   12774:	6622                	ld	a2,8(sp)
   12776:	6582                	ld	a1,0(sp)
   12778:	60e2                	ld	ra,24(sp)
   1277a:	6105                	addi	sp,sp,32
   1277c:	bf49                	j	1270e <_ZNKSt7__cxx1112basic_stringIcSt11char_traitsIcESaIcEE5rfindEPKcmm>

000000000001277e <_ZNKSt7__cxx1112basic_stringIcSt11char_traitsIcESaIcEE5rfindEcm>:
   1277e:	651c                	ld	a5,8(a0)
   12780:	cf91                	beqz	a5,1279c <_ZNKSt7__cxx1112basic_stringIcSt11char_traitsIcESaIcEE5rfindEcm+0x1e>
   12782:	17fd                	addi	a5,a5,-1
   12784:	00f67363          	bgeu	a2,a5,1278a <_ZNKSt7__cxx1112basic_stringIcSt11char_traitsIcESaIcEE5rfindEcm+0xc>
   12788:	87b2                	mv	a5,a2
   1278a:	0785                	addi	a5,a5,1
   1278c:	6118                	ld	a4,0(a0)
   1278e:	17fd                	addi	a5,a5,-1
   12790:	973e                	add	a4,a4,a5
   12792:	00074703          	lbu	a4,0(a4)
   12796:	00b70463          	beq	a4,a1,1279e <_ZNKSt7__cxx1112basic_stringIcSt11char_traitsIcESaIcEE5rfindEcm+0x20>
   1279a:	fbed                	bnez	a5,1278c <_ZNKSt7__cxx1112basic_stringIcSt11char_traitsIcESaIcEE5rfindEcm+0xe>
   1279c:	57fd                	li	a5,-1
   1279e:	853e                	mv	a0,a5
   127a0:	8082                	ret

00000000000127a2 <_ZNKSt7__cxx1112basic_stringIcSt11char_traitsIcESaIcEE13find_first_ofEPKcmm>:
   127a2:	7179                	addi	sp,sp,-48
   127a4:	f406                	sd	ra,40(sp)
   127a6:	f022                	sd	s0,32(sp)
   127a8:	ec26                	sd	s1,24(sp)
   127aa:	e84a                	sd	s2,16(sp)
   127ac:	e44e                	sd	s3,8(sp)
   127ae:	e052                	sd	s4,0(sp)
   127b0:	ce95                	beqz	a3,127ec <_ZNKSt7__cxx1112basic_stringIcSt11char_traitsIcESaIcEE13find_first_ofEPKcmm+0x4a>
   127b2:	00853a03          	ld	s4,8(a0)
   127b6:	84b6                	mv	s1,a3
   127b8:	89ae                	mv	s3,a1
   127ba:	892a                	mv	s2,a0
   127bc:	8432                	mv	s0,a2
   127be:	03447763          	bgeu	s0,s4,127ec <_ZNKSt7__cxx1112basic_stringIcSt11char_traitsIcESaIcEE13find_first_ofEPKcmm+0x4a>
   127c2:	00093783          	ld	a5,0(s2)
   127c6:	85a6                	mv	a1,s1
   127c8:	854e                	mv	a0,s3
   127ca:	97a2                	add	a5,a5,s0
   127cc:	0007c603          	lbu	a2,0(a5)
   127d0:	f59fe0ef          	jal	11728 <_ZNSt11char_traitsIcE4findEPKcmRS1_.isra.0>
   127d4:	c911                	beqz	a0,127e8 <_ZNKSt7__cxx1112basic_stringIcSt11char_traitsIcESaIcEE13find_first_ofEPKcmm+0x46>
   127d6:	70a2                	ld	ra,40(sp)
   127d8:	8522                	mv	a0,s0
   127da:	7402                	ld	s0,32(sp)
   127dc:	64e2                	ld	s1,24(sp)
   127de:	6942                	ld	s2,16(sp)
   127e0:	69a2                	ld	s3,8(sp)
   127e2:	6a02                	ld	s4,0(sp)
   127e4:	6145                	addi	sp,sp,48
   127e6:	8082                	ret
   127e8:	0405                	addi	s0,s0,1
   127ea:	bfd1                	j	127be <_ZNKSt7__cxx1112basic_stringIcSt11char_traitsIcESaIcEE13find_first_ofEPKcmm+0x1c>
   127ec:	547d                	li	s0,-1
   127ee:	b7e5                	j	127d6 <_ZNKSt7__cxx1112basic_stringIcSt11char_traitsIcESaIcEE13find_first_ofEPKcmm+0x34>

00000000000127f0 <_ZNKSt7__cxx1112basic_stringIcSt11char_traitsIcESaIcEE13find_first_ofERKS4_m>:
   127f0:	6594                	ld	a3,8(a1)
   127f2:	618c                	ld	a1,0(a1)
   127f4:	b77d                	j	127a2 <_ZNKSt7__cxx1112basic_stringIcSt11char_traitsIcESaIcEE13find_first_ofEPKcmm>

00000000000127f6 <_ZNKSt7__cxx1112basic_stringIcSt11char_traitsIcESaIcEE13find_first_ofEPKcm>:
   127f6:	1101                	addi	sp,sp,-32
   127f8:	e822                	sd	s0,16(sp)
   127fa:	842a                	mv	s0,a0
   127fc:	852e                	mv	a0,a1
   127fe:	ec06                	sd	ra,24(sp)
   12800:	e432                	sd	a2,8(sp)
   12802:	e02e                	sd	a1,0(sp)
   12804:	12c0e0ef          	jal	20930 <strlen>
   12808:	86aa                	mv	a3,a0
   1280a:	8522                	mv	a0,s0
   1280c:	6442                	ld	s0,16(sp)
   1280e:	6622                	ld	a2,8(sp)
   12810:	6582                	ld	a1,0(sp)
   12812:	60e2                	ld	ra,24(sp)
   12814:	6105                	addi	sp,sp,32
   12816:	b771                	j	127a2 <_ZNKSt7__cxx1112basic_stringIcSt11char_traitsIcESaIcEE13find_first_ofEPKcmm>

0000000000012818 <_ZNKSt7__cxx1112basic_stringIcSt11char_traitsIcESaIcEE13find_first_ofEcm>:
   12818:	b5c1                	j	126d8 <_ZNKSt7__cxx1112basic_stringIcSt11char_traitsIcESaIcEE4findEcm>

000000000001281a <_ZNKSt7__cxx1112basic_stringIcSt11char_traitsIcESaIcEE12find_last_ofEPKcmm>:
   1281a:	7179                	addi	sp,sp,-48
   1281c:	f022                	sd	s0,32(sp)
   1281e:	6500                	ld	s0,8(a0)
   12820:	f406                	sd	ra,40(sp)
   12822:	ec26                	sd	s1,24(sp)
   12824:	e84a                	sd	s2,16(sp)
   12826:	e44e                	sd	s3,8(sp)
   12828:	e052                	sd	s4,0(sp)
   1282a:	c021                	beqz	s0,1286a <_ZNKSt7__cxx1112basic_stringIcSt11char_traitsIcESaIcEE12find_last_ofEPKcmm+0x50>
   1282c:	ce9d                	beqz	a3,1286a <_ZNKSt7__cxx1112basic_stringIcSt11char_traitsIcESaIcEE12find_last_ofEPKcmm+0x50>
   1282e:	147d                	addi	s0,s0,-1
   12830:	00867363          	bgeu	a2,s0,12836 <_ZNKSt7__cxx1112basic_stringIcSt11char_traitsIcESaIcEE12find_last_ofEPKcmm+0x1c>
   12834:	8432                	mv	s0,a2
   12836:	00053a03          	ld	s4,0(a0)
   1283a:	84b6                	mv	s1,a3
   1283c:	892e                	mv	s2,a1
   1283e:	59fd                	li	s3,-1
   12840:	008a07b3          	add	a5,s4,s0
   12844:	0007c603          	lbu	a2,0(a5)
   12848:	85a6                	mv	a1,s1
   1284a:	854a                	mv	a0,s2
   1284c:	eddfe0ef          	jal	11728 <_ZNSt11char_traitsIcE4findEPKcmRS1_.isra.0>
   12850:	e501                	bnez	a0,12858 <_ZNKSt7__cxx1112basic_stringIcSt11char_traitsIcESaIcEE12find_last_ofEPKcmm+0x3e>
   12852:	147d                	addi	s0,s0,-1
   12854:	ff3416e3          	bne	s0,s3,12840 <_ZNKSt7__cxx1112basic_stringIcSt11char_traitsIcESaIcEE12find_last_ofEPKcmm+0x26>
   12858:	70a2                	ld	ra,40(sp)
   1285a:	8522                	mv	a0,s0
   1285c:	7402                	ld	s0,32(sp)
   1285e:	64e2                	ld	s1,24(sp)
   12860:	6942                	ld	s2,16(sp)
   12862:	69a2                	ld	s3,8(sp)
   12864:	6a02                	ld	s4,0(sp)
   12866:	6145                	addi	sp,sp,48
   12868:	8082                	ret
   1286a:	547d                	li	s0,-1
   1286c:	b7f5                	j	12858 <_ZNKSt7__cxx1112basic_stringIcSt11char_traitsIcESaIcEE12find_last_ofEPKcmm+0x3e>

000000000001286e <_ZNKSt7__cxx1112basic_stringIcSt11char_traitsIcESaIcEE12find_last_ofERKS4_m>:
   1286e:	6594                	ld	a3,8(a1)
   12870:	618c                	ld	a1,0(a1)
   12872:	b765                	j	1281a <_ZNKSt7__cxx1112basic_stringIcSt11char_traitsIcESaIcEE12find_last_ofEPKcmm>

0000000000012874 <_ZNKSt7__cxx1112basic_stringIcSt11char_traitsIcESaIcEE12find_last_ofEPKcm>:
   12874:	1101                	addi	sp,sp,-32
   12876:	e822                	sd	s0,16(sp)
   12878:	842a                	mv	s0,a0
   1287a:	852e                	mv	a0,a1
   1287c:	ec06                	sd	ra,24(sp)
   1287e:	e432                	sd	a2,8(sp)
   12880:	e02e                	sd	a1,0(sp)
   12882:	0ae0e0ef          	jal	20930 <strlen>
   12886:	86aa                	mv	a3,a0
   12888:	8522                	mv	a0,s0
   1288a:	6442                	ld	s0,16(sp)
   1288c:	6622                	ld	a2,8(sp)
   1288e:	6582                	ld	a1,0(sp)
   12890:	60e2                	ld	ra,24(sp)
   12892:	6105                	addi	sp,sp,32
   12894:	b759                	j	1281a <_ZNKSt7__cxx1112basic_stringIcSt11char_traitsIcESaIcEE12find_last_ofEPKcmm>

0000000000012896 <_ZNKSt7__cxx1112basic_stringIcSt11char_traitsIcESaIcEE12find_last_ofEcm>:
   12896:	b5e5                	j	1277e <_ZNKSt7__cxx1112basic_stringIcSt11char_traitsIcESaIcEE5rfindEcm>

0000000000012898 <_ZNKSt7__cxx1112basic_stringIcSt11char_traitsIcESaIcEE17find_first_not_ofEPKcmm>:
   12898:	7139                	addi	sp,sp,-64
   1289a:	f04a                	sd	s2,32(sp)
   1289c:	00853903          	ld	s2,8(a0)
   128a0:	f822                	sd	s0,48(sp)
   128a2:	f426                	sd	s1,40(sp)
   128a4:	ec4e                	sd	s3,24(sp)
   128a6:	fc06                	sd	ra,56(sp)
   128a8:	84aa                	mv	s1,a0
   128aa:	89ae                	mv	s3,a1
   128ac:	8432                	mv	s0,a2
   128ae:	01246b63          	bltu	s0,s2,128c4 <_ZNKSt7__cxx1112basic_stringIcSt11char_traitsIcESaIcEE17find_first_not_ofEPKcmm+0x2c>
   128b2:	547d                	li	s0,-1
   128b4:	70e2                	ld	ra,56(sp)
   128b6:	8522                	mv	a0,s0
   128b8:	7442                	ld	s0,48(sp)
   128ba:	74a2                	ld	s1,40(sp)
   128bc:	7902                	ld	s2,32(sp)
   128be:	69e2                	ld	s3,24(sp)
   128c0:	6121                	addi	sp,sp,64
   128c2:	8082                	ret
   128c4:	609c                	ld	a5,0(s1)
   128c6:	85b6                	mv	a1,a3
   128c8:	854e                	mv	a0,s3
   128ca:	97a2                	add	a5,a5,s0
   128cc:	0007c603          	lbu	a2,0(a5)
   128d0:	e436                	sd	a3,8(sp)
   128d2:	e57fe0ef          	jal	11728 <_ZNSt11char_traitsIcE4findEPKcmRS1_.isra.0>
   128d6:	dd79                	beqz	a0,128b4 <_ZNKSt7__cxx1112basic_stringIcSt11char_traitsIcESaIcEE17find_first_not_ofEPKcmm+0x1c>
   128d8:	66a2                	ld	a3,8(sp)
   128da:	0405                	addi	s0,s0,1
   128dc:	bfc9                	j	128ae <_ZNKSt7__cxx1112basic_stringIcSt11char_traitsIcESaIcEE17find_first_not_ofEPKcmm+0x16>

00000000000128de <_ZNKSt7__cxx1112basic_stringIcSt11char_traitsIcESaIcEE17find_first_not_ofERKS4_m>:
   128de:	6594                	ld	a3,8(a1)
   128e0:	618c                	ld	a1,0(a1)
   128e2:	bf5d                	j	12898 <_ZNKSt7__cxx1112basic_stringIcSt11char_traitsIcESaIcEE17find_first_not_ofEPKcmm>

00000000000128e4 <_ZNKSt7__cxx1112basic_stringIcSt11char_traitsIcESaIcEE17find_first_not_ofEPKcm>:
   128e4:	1101                	addi	sp,sp,-32
   128e6:	e822                	sd	s0,16(sp)
   128e8:	842a                	mv	s0,a0
   128ea:	852e                	mv	a0,a1
   128ec:	ec06                	sd	ra,24(sp)
   128ee:	e432                	sd	a2,8(sp)
   128f0:	e02e                	sd	a1,0(sp)
   128f2:	03e0e0ef          	jal	20930 <strlen>
   128f6:	86aa                	mv	a3,a0
   128f8:	8522                	mv	a0,s0
   128fa:	6442                	ld	s0,16(sp)
   128fc:	6622                	ld	a2,8(sp)
   128fe:	6582                	ld	a1,0(sp)
   12900:	60e2                	ld	ra,24(sp)
   12902:	6105                	addi	sp,sp,32
   12904:	bf51                	j	12898 <_ZNKSt7__cxx1112basic_stringIcSt11char_traitsIcESaIcEE17find_first_not_ofEPKcmm>

0000000000012906 <_ZNKSt7__cxx1112basic_stringIcSt11char_traitsIcESaIcEE17find_first_not_ofEcm>:
   12906:	6518                	ld	a4,8(a0)
   12908:	00e66563          	bltu	a2,a4,12912 <_ZNKSt7__cxx1112basic_stringIcSt11char_traitsIcESaIcEE17find_first_not_ofEcm+0xc>
   1290c:	567d                	li	a2,-1
   1290e:	8532                	mv	a0,a2
   12910:	8082                	ret
   12912:	611c                	ld	a5,0(a0)
   12914:	97b2                	add	a5,a5,a2
   12916:	0007c783          	lbu	a5,0(a5)
   1291a:	feb79ae3          	bne	a5,a1,1290e <_ZNKSt7__cxx1112basic_stringIcSt11char_traitsIcESaIcEE17find_first_not_ofEcm+0x8>
   1291e:	0605                	addi	a2,a2,1
   12920:	b7e5                	j	12908 <_ZNKSt7__cxx1112basic_stringIcSt11char_traitsIcESaIcEE17find_first_not_ofEcm+0x2>

0000000000012922 <_ZNKSt7__cxx1112basic_stringIcSt11char_traitsIcESaIcEE16find_last_not_ofEPKcmm>:
   12922:	7179                	addi	sp,sp,-48
   12924:	f022                	sd	s0,32(sp)
   12926:	6500                	ld	s0,8(a0)
   12928:	f406                	sd	ra,40(sp)
   1292a:	ec26                	sd	s1,24(sp)
   1292c:	e84a                	sd	s2,16(sp)
   1292e:	e44e                	sd	s3,8(sp)
   12930:	e052                	sd	s4,0(sp)
   12932:	cc1d                	beqz	s0,12970 <_ZNKSt7__cxx1112basic_stringIcSt11char_traitsIcESaIcEE16find_last_not_ofEPKcmm+0x4e>
   12934:	147d                	addi	s0,s0,-1
   12936:	00867363          	bgeu	a2,s0,1293c <_ZNKSt7__cxx1112basic_stringIcSt11char_traitsIcESaIcEE16find_last_not_ofEPKcmm+0x1a>
   1293a:	8432                	mv	s0,a2
   1293c:	00053a03          	ld	s4,0(a0)
   12940:	8936                	mv	s2,a3
   12942:	84ae                	mv	s1,a1
   12944:	59fd                	li	s3,-1
   12946:	008a07b3          	add	a5,s4,s0
   1294a:	0007c603          	lbu	a2,0(a5)
   1294e:	85ca                	mv	a1,s2
   12950:	8526                	mv	a0,s1
   12952:	dd7fe0ef          	jal	11728 <_ZNSt11char_traitsIcE4findEPKcmRS1_.isra.0>
   12956:	c501                	beqz	a0,1295e <_ZNKSt7__cxx1112basic_stringIcSt11char_traitsIcESaIcEE16find_last_not_ofEPKcmm+0x3c>
   12958:	147d                	addi	s0,s0,-1
   1295a:	ff3416e3          	bne	s0,s3,12946 <_ZNKSt7__cxx1112basic_stringIcSt11char_traitsIcESaIcEE16find_last_not_ofEPKcmm+0x24>
   1295e:	70a2                	ld	ra,40(sp)
   12960:	8522                	mv	a0,s0
   12962:	7402                	ld	s0,32(sp)
   12964:	64e2                	ld	s1,24(sp)
   12966:	6942                	ld	s2,16(sp)
   12968:	69a2                	ld	s3,8(sp)
   1296a:	6a02                	ld	s4,0(sp)
   1296c:	6145                	addi	sp,sp,48
   1296e:	8082                	ret
   12970:	547d                	li	s0,-1
   12972:	b7f5                	j	1295e <_ZNKSt7__cxx1112basic_stringIcSt11char_traitsIcESaIcEE16find_last_not_ofEPKcmm+0x3c>

0000000000012974 <_ZNKSt7__cxx1112basic_stringIcSt11char_traitsIcESaIcEE16find_last_not_ofERKS4_m>:
   12974:	6594                	ld	a3,8(a1)
   12976:	618c                	ld	a1,0(a1)
   12978:	b76d                	j	12922 <_ZNKSt7__cxx1112basic_stringIcSt11char_traitsIcESaIcEE16find_last_not_ofEPKcmm>

000000000001297a <_ZNKSt7__cxx1112basic_stringIcSt11char_traitsIcESaIcEE16find_last_not_ofEPKcm>:
   1297a:	1101                	addi	sp,sp,-32
   1297c:	e822                	sd	s0,16(sp)
   1297e:	842a                	mv	s0,a0
   12980:	852e                	mv	a0,a1
   12982:	ec06                	sd	ra,24(sp)
   12984:	e432                	sd	a2,8(sp)
   12986:	e02e                	sd	a1,0(sp)
   12988:	7a90d0ef          	jal	20930 <strlen>
   1298c:	86aa                	mv	a3,a0
   1298e:	8522                	mv	a0,s0
   12990:	6442                	ld	s0,16(sp)
   12992:	6622                	ld	a2,8(sp)
   12994:	6582                	ld	a1,0(sp)
   12996:	60e2                	ld	ra,24(sp)
   12998:	6105                	addi	sp,sp,32
   1299a:	b761                	j	12922 <_ZNKSt7__cxx1112basic_stringIcSt11char_traitsIcESaIcEE16find_last_not_ofEPKcmm>

000000000001299c <_ZNKSt7__cxx1112basic_stringIcSt11char_traitsIcESaIcEE16find_last_not_ofEcm>:
   1299c:	651c                	ld	a5,8(a0)
   1299e:	c395                	beqz	a5,129c2 <_ZNKSt7__cxx1112basic_stringIcSt11char_traitsIcESaIcEE16find_last_not_ofEcm+0x26>
   129a0:	17fd                	addi	a5,a5,-1
   129a2:	00f67363          	bgeu	a2,a5,129a8 <_ZNKSt7__cxx1112basic_stringIcSt11char_traitsIcESaIcEE16find_last_not_ofEcm+0xc>
   129a6:	87b2                	mv	a5,a2
   129a8:	6114                	ld	a3,0(a0)
   129aa:	577d                	li	a4,-1
   129ac:	00f68633          	add	a2,a3,a5
   129b0:	00064603          	lbu	a2,0(a2)
   129b4:	00b61563          	bne	a2,a1,129be <_ZNKSt7__cxx1112basic_stringIcSt11char_traitsIcESaIcEE16find_last_not_ofEcm+0x22>
   129b8:	17fd                	addi	a5,a5,-1
   129ba:	fee799e3          	bne	a5,a4,129ac <_ZNKSt7__cxx1112basic_stringIcSt11char_traitsIcESaIcEE16find_last_not_ofEcm+0x10>
   129be:	853e                	mv	a0,a5
   129c0:	8082                	ret
   129c2:	57fd                	li	a5,-1
   129c4:	bfed                	j	129be <_ZNKSt7__cxx1112basic_stringIcSt11char_traitsIcESaIcEE16find_last_not_ofEcm+0x22>

00000000000129c6 <_ZNKSt7__cxx1112basic_stringIcSt11char_traitsIcESaIcEE7compareERKS4_>:
   129c6:	1101                	addi	sp,sp,-32
   129c8:	e822                	sd	s0,16(sp)
   129ca:	e426                	sd	s1,8(sp)
   129cc:	6500                	ld	s0,8(a0)
   129ce:	6584                	ld	s1,8(a1)
   129d0:	ec06                	sd	ra,24(sp)
   129d2:	8626                	mv	a2,s1
   129d4:	0084e363          	bltu	s1,s0,129da <_ZNKSt7__cxx1112basic_stringIcSt11char_traitsIcESaIcEE7compareERKS4_+0x14>
   129d8:	8622                	mv	a2,s0
   129da:	618c                	ld	a1,0(a1)
   129dc:	6108                	ld	a0,0(a0)
   129de:	d5bfe0ef          	jal	11738 <_ZNSt11char_traitsIcE7compareEPKcS2_m>
   129e2:	e909                	bnez	a0,129f4 <_ZNKSt7__cxx1112basic_stringIcSt11char_traitsIcESaIcEE7compareERKS4_+0x2e>
   129e4:	8522                	mv	a0,s0
   129e6:	6442                	ld	s0,16(sp)
   129e8:	60e2                	ld	ra,24(sp)
   129ea:	85a6                	mv	a1,s1
   129ec:	64a2                	ld	s1,8(sp)
   129ee:	6105                	addi	sp,sp,32
   129f0:	eddfe06f          	j	118cc <_ZNSt7__cxx1112basic_stringIcSt11char_traitsIcESaIcEE10_S_compareEmm>
   129f4:	60e2                	ld	ra,24(sp)
   129f6:	6442                	ld	s0,16(sp)
   129f8:	64a2                	ld	s1,8(sp)
   129fa:	6105                	addi	sp,sp,32
   129fc:	8082                	ret

00000000000129fe <_ZNKSt7__cxx1112basic_stringIcSt11char_traitsIcESaIcEE7compareEmmRKS4_>:
   129fe:	7139                	addi	sp,sp,-64
   12a00:	f426                	sd	s1,40(sp)
   12a02:	84b2                	mv	s1,a2
   12a04:	0002a637          	lui	a2,0x2a
   12a08:	ec4e                	sd	s3,24(sp)
   12a0a:	70860613          	addi	a2,a2,1800 # 2a708 <__clzdi2+0x438>
   12a0e:	89aa                	mv	s3,a0
   12a10:	f822                	sd	s0,48(sp)
   12a12:	f04a                	sd	s2,32(sp)
   12a14:	e436                	sd	a3,8(sp)
   12a16:	892e                	mv	s2,a1
   12a18:	fc06                	sd	ra,56(sp)
   12a1a:	dc5fe0ef          	jal	117de <_ZNKSt7__cxx1112basic_stringIcSt11char_traitsIcESaIcEE8_M_checkEmPKc>
   12a1e:	0089b403          	ld	s0,8(s3)
   12a22:	66a2                	ld	a3,8(sp)
   12a24:	41240433          	sub	s0,s0,s2
   12a28:	0084f363          	bgeu	s1,s0,12a2e <_ZNKSt7__cxx1112basic_stringIcSt11char_traitsIcESaIcEE7compareEmmRKS4_+0x30>
   12a2c:	8426                	mv	s0,s1
   12a2e:	6684                	ld	s1,8(a3)
   12a30:	8626                	mv	a2,s1
   12a32:	00947363          	bgeu	s0,s1,12a38 <_ZNKSt7__cxx1112basic_stringIcSt11char_traitsIcESaIcEE7compareEmmRKS4_+0x3a>
   12a36:	8622                	mv	a2,s0
   12a38:	0009b503          	ld	a0,0(s3)
   12a3c:	628c                	ld	a1,0(a3)
   12a3e:	954a                	add	a0,a0,s2
   12a40:	cf9fe0ef          	jal	11738 <_ZNSt11char_traitsIcE7compareEPKcS2_m>
   12a44:	e919                	bnez	a0,12a5a <_ZNKSt7__cxx1112basic_stringIcSt11char_traitsIcESaIcEE7compareEmmRKS4_+0x5c>
   12a46:	8522                	mv	a0,s0
   12a48:	7442                	ld	s0,48(sp)
   12a4a:	70e2                	ld	ra,56(sp)
   12a4c:	7902                	ld	s2,32(sp)
   12a4e:	69e2                	ld	s3,24(sp)
   12a50:	85a6                	mv	a1,s1
   12a52:	74a2                	ld	s1,40(sp)
   12a54:	6121                	addi	sp,sp,64
   12a56:	e77fe06f          	j	118cc <_ZNSt7__cxx1112basic_stringIcSt11char_traitsIcESaIcEE10_S_compareEmm>
   12a5a:	70e2                	ld	ra,56(sp)
   12a5c:	7442                	ld	s0,48(sp)
   12a5e:	74a2                	ld	s1,40(sp)
   12a60:	7902                	ld	s2,32(sp)
   12a62:	69e2                	ld	s3,24(sp)
   12a64:	6121                	addi	sp,sp,64
   12a66:	8082                	ret

0000000000012a68 <_ZNKSt7__cxx1112basic_stringIcSt11char_traitsIcESaIcEE7compareEmmRKS4_mm>:
   12a68:	715d                	addi	sp,sp,-80
   12a6a:	e0a2                	sd	s0,64(sp)
   12a6c:	0002a437          	lui	s0,0x2a
   12a70:	fc26                	sd	s1,56(sp)
   12a72:	84b2                	mv	s1,a2
   12a74:	70840613          	addi	a2,s0,1800 # 2a708 <__clzdi2+0x438>
   12a78:	e43e                	sd	a5,8(sp)
   12a7a:	e486                	sd	ra,72(sp)
   12a7c:	f84a                	sd	s2,48(sp)
   12a7e:	f44e                	sd	s3,40(sp)
   12a80:	893a                	mv	s2,a4
   12a82:	89b6                	mv	s3,a3
   12a84:	f052                	sd	s4,32(sp)
   12a86:	ec56                	sd	s5,24(sp)
   12a88:	8a2e                	mv	s4,a1
   12a8a:	8aaa                	mv	s5,a0
   12a8c:	d53fe0ef          	jal	117de <_ZNKSt7__cxx1112basic_stringIcSt11char_traitsIcESaIcEE8_M_checkEmPKc>
   12a90:	70840613          	addi	a2,s0,1800
   12a94:	85ca                	mv	a1,s2
   12a96:	854e                	mv	a0,s3
   12a98:	d47fe0ef          	jal	117de <_ZNKSt7__cxx1112basic_stringIcSt11char_traitsIcESaIcEE8_M_checkEmPKc>
   12a9c:	008ab403          	ld	s0,8(s5)
   12aa0:	67a2                	ld	a5,8(sp)
   12aa2:	41440433          	sub	s0,s0,s4
   12aa6:	0084f363          	bgeu	s1,s0,12aac <_ZNKSt7__cxx1112basic_stringIcSt11char_traitsIcESaIcEE7compareEmmRKS4_mm+0x44>
   12aaa:	8426                	mv	s0,s1
   12aac:	0089b483          	ld	s1,8(s3)
   12ab0:	412484b3          	sub	s1,s1,s2
   12ab4:	0097f363          	bgeu	a5,s1,12aba <_ZNKSt7__cxx1112basic_stringIcSt11char_traitsIcESaIcEE7compareEmmRKS4_mm+0x52>
   12ab8:	84be                	mv	s1,a5
   12aba:	8626                	mv	a2,s1
   12abc:	00947363          	bgeu	s0,s1,12ac2 <_ZNKSt7__cxx1112basic_stringIcSt11char_traitsIcESaIcEE7compareEmmRKS4_mm+0x5a>
   12ac0:	8622                	mv	a2,s0
   12ac2:	0009b583          	ld	a1,0(s3)
   12ac6:	000ab503          	ld	a0,0(s5)
   12aca:	95ca                	add	a1,a1,s2
   12acc:	9552                	add	a0,a0,s4
   12ace:	c6bfe0ef          	jal	11738 <_ZNSt11char_traitsIcE7compareEPKcS2_m>
   12ad2:	ed09                	bnez	a0,12aec <_ZNKSt7__cxx1112basic_stringIcSt11char_traitsIcESaIcEE7compareEmmRKS4_mm+0x84>
   12ad4:	8522                	mv	a0,s0
   12ad6:	6406                	ld	s0,64(sp)
   12ad8:	60a6                	ld	ra,72(sp)
   12ada:	7942                	ld	s2,48(sp)
   12adc:	79a2                	ld	s3,40(sp)
   12ade:	7a02                	ld	s4,32(sp)
   12ae0:	6ae2                	ld	s5,24(sp)
   12ae2:	85a6                	mv	a1,s1
   12ae4:	74e2                	ld	s1,56(sp)
   12ae6:	6161                	addi	sp,sp,80
   12ae8:	de5fe06f          	j	118cc <_ZNSt7__cxx1112basic_stringIcSt11char_traitsIcESaIcEE10_S_compareEmm>
   12aec:	60a6                	ld	ra,72(sp)
   12aee:	6406                	ld	s0,64(sp)
   12af0:	74e2                	ld	s1,56(sp)
   12af2:	7942                	ld	s2,48(sp)
   12af4:	79a2                	ld	s3,40(sp)
   12af6:	7a02                	ld	s4,32(sp)
   12af8:	6ae2                	ld	s5,24(sp)
   12afa:	6161                	addi	sp,sp,80
   12afc:	8082                	ret

0000000000012afe <_ZNKSt7__cxx1112basic_stringIcSt11char_traitsIcESaIcEE7compareEPKc>:
   12afe:	7179                	addi	sp,sp,-48
   12b00:	f022                	sd	s0,32(sp)
   12b02:	6500                	ld	s0,8(a0)
   12b04:	e84a                	sd	s2,16(sp)
   12b06:	892a                	mv	s2,a0
   12b08:	852e                	mv	a0,a1
   12b0a:	ec26                	sd	s1,24(sp)
   12b0c:	e42e                	sd	a1,8(sp)
   12b0e:	f406                	sd	ra,40(sp)
   12b10:	6210d0ef          	jal	20930 <strlen>
   12b14:	65a2                	ld	a1,8(sp)
   12b16:	84aa                	mv	s1,a0
   12b18:	862a                	mv	a2,a0
   12b1a:	00856363          	bltu	a0,s0,12b20 <_ZNKSt7__cxx1112basic_stringIcSt11char_traitsIcESaIcEE7compareEPKc+0x22>
   12b1e:	8622                	mv	a2,s0
   12b20:	00093503          	ld	a0,0(s2)
   12b24:	c15fe0ef          	jal	11738 <_ZNSt11char_traitsIcE7compareEPKcS2_m>
   12b28:	e911                	bnez	a0,12b3c <_ZNKSt7__cxx1112basic_stringIcSt11char_traitsIcESaIcEE7compareEPKc+0x3e>
   12b2a:	8522                	mv	a0,s0
   12b2c:	7402                	ld	s0,32(sp)
   12b2e:	70a2                	ld	ra,40(sp)
   12b30:	6942                	ld	s2,16(sp)
   12b32:	85a6                	mv	a1,s1
   12b34:	64e2                	ld	s1,24(sp)
   12b36:	6145                	addi	sp,sp,48
   12b38:	d95fe06f          	j	118cc <_ZNSt7__cxx1112basic_stringIcSt11char_traitsIcESaIcEE10_S_compareEmm>
   12b3c:	70a2                	ld	ra,40(sp)
   12b3e:	7402                	ld	s0,32(sp)
   12b40:	64e2                	ld	s1,24(sp)
   12b42:	6942                	ld	s2,16(sp)
   12b44:	6145                	addi	sp,sp,48
   12b46:	8082                	ret

0000000000012b48 <_ZNKSt7__cxx1112basic_stringIcSt11char_traitsIcESaIcEE7compareEmmPKc>:
   12b48:	7179                	addi	sp,sp,-48
   12b4a:	ec26                	sd	s1,24(sp)
   12b4c:	84b2                	mv	s1,a2
   12b4e:	0002a637          	lui	a2,0x2a
   12b52:	e44e                	sd	s3,8(sp)
   12b54:	70860613          	addi	a2,a2,1800 # 2a708 <__clzdi2+0x438>
   12b58:	89aa                	mv	s3,a0
   12b5a:	f022                	sd	s0,32(sp)
   12b5c:	e84a                	sd	s2,16(sp)
   12b5e:	e052                	sd	s4,0(sp)
   12b60:	892e                	mv	s2,a1
   12b62:	f406                	sd	ra,40(sp)
   12b64:	8a36                	mv	s4,a3
   12b66:	c79fe0ef          	jal	117de <_ZNKSt7__cxx1112basic_stringIcSt11char_traitsIcESaIcEE8_M_checkEmPKc>
   12b6a:	0089b403          	ld	s0,8(s3)
   12b6e:	41240433          	sub	s0,s0,s2
   12b72:	0084f363          	bgeu	s1,s0,12b78 <_ZNKSt7__cxx1112basic_stringIcSt11char_traitsIcESaIcEE7compareEmmPKc+0x30>
   12b76:	8426                	mv	s0,s1
   12b78:	8552                	mv	a0,s4
   12b7a:	5b70d0ef          	jal	20930 <strlen>
   12b7e:	84aa                	mv	s1,a0
   12b80:	862a                	mv	a2,a0
   12b82:	00a47363          	bgeu	s0,a0,12b88 <_ZNKSt7__cxx1112basic_stringIcSt11char_traitsIcESaIcEE7compareEmmPKc+0x40>
   12b86:	8622                	mv	a2,s0
   12b88:	0009b503          	ld	a0,0(s3)
   12b8c:	85d2                	mv	a1,s4
   12b8e:	954a                	add	a0,a0,s2
   12b90:	ba9fe0ef          	jal	11738 <_ZNSt11char_traitsIcE7compareEPKcS2_m>
   12b94:	ed01                	bnez	a0,12bac <_ZNKSt7__cxx1112basic_stringIcSt11char_traitsIcESaIcEE7compareEmmPKc+0x64>
   12b96:	8522                	mv	a0,s0
   12b98:	7402                	ld	s0,32(sp)
   12b9a:	70a2                	ld	ra,40(sp)
   12b9c:	6942                	ld	s2,16(sp)
   12b9e:	69a2                	ld	s3,8(sp)
   12ba0:	6a02                	ld	s4,0(sp)
   12ba2:	85a6                	mv	a1,s1
   12ba4:	64e2                	ld	s1,24(sp)
   12ba6:	6145                	addi	sp,sp,48
   12ba8:	d25fe06f          	j	118cc <_ZNSt7__cxx1112basic_stringIcSt11char_traitsIcESaIcEE10_S_compareEmm>
   12bac:	70a2                	ld	ra,40(sp)
   12bae:	7402                	ld	s0,32(sp)
   12bb0:	64e2                	ld	s1,24(sp)
   12bb2:	6942                	ld	s2,16(sp)
   12bb4:	69a2                	ld	s3,8(sp)
   12bb6:	6a02                	ld	s4,0(sp)
   12bb8:	6145                	addi	sp,sp,48
   12bba:	8082                	ret

0000000000012bbc <_ZNKSt7__cxx1112basic_stringIcSt11char_traitsIcESaIcEE7compareEmmPKcm>:
   12bbc:	7139                	addi	sp,sp,-64
   12bbe:	e852                	sd	s4,16(sp)
   12bc0:	8a32                	mv	s4,a2
   12bc2:	0002a637          	lui	a2,0x2a
   12bc6:	ec4e                	sd	s3,24(sp)
   12bc8:	70860613          	addi	a2,a2,1800 # 2a708 <__clzdi2+0x438>
   12bcc:	89aa                	mv	s3,a0
   12bce:	f822                	sd	s0,48(sp)
   12bd0:	f426                	sd	s1,40(sp)
   12bd2:	f04a                	sd	s2,32(sp)
   12bd4:	e436                	sd	a3,8(sp)
   12bd6:	892e                	mv	s2,a1
   12bd8:	fc06                	sd	ra,56(sp)
   12bda:	84ba                	mv	s1,a4
   12bdc:	c03fe0ef          	jal	117de <_ZNKSt7__cxx1112basic_stringIcSt11char_traitsIcESaIcEE8_M_checkEmPKc>
   12be0:	0089b403          	ld	s0,8(s3)
   12be4:	66a2                	ld	a3,8(sp)
   12be6:	41240433          	sub	s0,s0,s2
   12bea:	008a7363          	bgeu	s4,s0,12bf0 <_ZNKSt7__cxx1112basic_stringIcSt11char_traitsIcESaIcEE7compareEmmPKcm+0x34>
   12bee:	8452                	mv	s0,s4
   12bf0:	8622                	mv	a2,s0
   12bf2:	0084f363          	bgeu	s1,s0,12bf8 <_ZNKSt7__cxx1112basic_stringIcSt11char_traitsIcESaIcEE7compareEmmPKcm+0x3c>
   12bf6:	8626                	mv	a2,s1
   12bf8:	0009b503          	ld	a0,0(s3)
   12bfc:	85b6                	mv	a1,a3
   12bfe:	954a                	add	a0,a0,s2
   12c00:	b39fe0ef          	jal	11738 <_ZNSt11char_traitsIcE7compareEPKcS2_m>
   12c04:	ed01                	bnez	a0,12c1c <_ZNKSt7__cxx1112basic_stringIcSt11char_traitsIcESaIcEE7compareEmmPKcm+0x60>
   12c06:	8522                	mv	a0,s0
   12c08:	7442                	ld	s0,48(sp)
   12c0a:	70e2                	ld	ra,56(sp)
   12c0c:	7902                	ld	s2,32(sp)
   12c0e:	69e2                	ld	s3,24(sp)
   12c10:	6a42                	ld	s4,16(sp)
   12c12:	85a6                	mv	a1,s1
   12c14:	74a2                	ld	s1,40(sp)
   12c16:	6121                	addi	sp,sp,64
   12c18:	cb5fe06f          	j	118cc <_ZNSt7__cxx1112basic_stringIcSt11char_traitsIcESaIcEE10_S_compareEmm>
   12c1c:	70e2                	ld	ra,56(sp)
   12c1e:	7442                	ld	s0,48(sp)
   12c20:	74a2                	ld	s1,40(sp)
   12c22:	7902                	ld	s2,32(sp)
   12c24:	69e2                	ld	s3,24(sp)
   12c26:	6a42                	ld	s4,16(sp)
   12c28:	6121                	addi	sp,sp,64
   12c2a:	8082                	ret

0000000000012c2c <_ZNSt7__cxx1112basic_stringIcSt11char_traitsIcESaIcEE12_Alloc_hiderC1EPcRKS3_>:
   12c2c:	e10c                	sd	a1,0(a0)
   12c2e:	8082                	ret

0000000000012c30 <_ZNSt7__cxx1112basic_stringIcSt11char_traitsIcESaIcEE12_Alloc_hiderC1EPcOS3_>:
   12c30:	e10c                	sd	a1,0(a0)
   12c32:	8082                	ret

0000000000012c34 <_ZStplIcSt11char_traitsIcESaIcEENSt7__cxx1112basic_stringIT_T0_T1_EEPKS5_RKS8_>:
   12c34:	7179                	addi	sp,sp,-48
   12c36:	ec26                	sd	s1,24(sp)
   12c38:	84aa                	mv	s1,a0
   12c3a:	852e                	mv	a0,a1
   12c3c:	f406                	sd	ra,40(sp)
   12c3e:	f022                	sd	s0,32(sp)
   12c40:	e42e                	sd	a1,8(sp)
   12c42:	8432                	mv	s0,a2
   12c44:	4ed0d0ef          	jal	20930 <strlen>
   12c48:	6418                	ld	a4,8(s0)
   12c4a:	6014                	ld	a3,0(s0)
   12c4c:	65a2                	ld	a1,8(sp)
   12c4e:	862a                	mv	a2,a0
   12c50:	8526                	mv	a0,s1
   12c52:	fe8ff0ef          	jal	1243a <_ZSt12__str_concatINSt7__cxx1112basic_stringIcSt11char_traitsIcESaIcEEEET_PKNS6_10value_typeENS6_9size_typeES9_SA_RKNS6_14allocator_typeE.isra.0>
   12c56:	70a2                	ld	ra,40(sp)
   12c58:	7402                	ld	s0,32(sp)
   12c5a:	8526                	mv	a0,s1
   12c5c:	64e2                	ld	s1,24(sp)
   12c5e:	6145                	addi	sp,sp,48
   12c60:	8082                	ret

0000000000012c62 <_ZStplIcSt11char_traitsIcESaIcEENSt7__cxx1112basic_stringIT_T0_T1_EES5_RKS8_>:
   12c62:	6618                	ld	a4,8(a2)
   12c64:	6214                	ld	a3,0(a2)
   12c66:	1101                	addi	sp,sp,-32
   12c68:	00b107a3          	sb	a1,15(sp)
   12c6c:	4605                	li	a2,1
   12c6e:	00f10593          	addi	a1,sp,15
   12c72:	ec06                	sd	ra,24(sp)
   12c74:	e02a                	sd	a0,0(sp)
   12c76:	fc4ff0ef          	jal	1243a <_ZSt12__str_concatINSt7__cxx1112basic_stringIcSt11char_traitsIcESaIcEEEET_PKNS6_10value_typeENS6_9size_typeES9_SA_RKNS6_14allocator_typeE.isra.0>
   12c7a:	60e2                	ld	ra,24(sp)
   12c7c:	6502                	ld	a0,0(sp)
   12c7e:	6105                	addi	sp,sp,32
   12c80:	8082                	ret

0000000000012c82 <_ZStplIcSt11char_traitsIcESaIcEENSt7__cxx1112basic_stringIT_T0_T1_EERKS8_SA_>:
   12c82:	6618                	ld	a4,8(a2)
   12c84:	6214                	ld	a3,0(a2)
   12c86:	6590                	ld	a2,8(a1)
   12c88:	618c                	ld	a1,0(a1)
   12c8a:	1101                	addi	sp,sp,-32
   12c8c:	ec06                	sd	ra,24(sp)
   12c8e:	e42a                	sd	a0,8(sp)
   12c90:	faaff0ef          	jal	1243a <_ZSt12__str_concatINSt7__cxx1112basic_stringIcSt11char_traitsIcESaIcEEEET_PKNS6_10value_typeENS6_9size_typeES9_SA_RKNS6_14allocator_typeE.isra.0>
   12c94:	60e2                	ld	ra,24(sp)
   12c96:	6522                	ld	a0,8(sp)
   12c98:	6105                	addi	sp,sp,32
   12c9a:	8082                	ret

0000000000012c9c <_ZNSt7__cxx1112basic_stringIcSt11char_traitsIcESaIcEE12_M_constructIN9__gnu_cxx17__normal_iteratorIPcS4_EEEEvT_SA_St20forward_iterator_tag>:
   12c9c:	7179                	addi	sp,sp,-48
   12c9e:	40b607b3          	sub	a5,a2,a1
   12ca2:	f022                	sd	s0,32(sp)
   12ca4:	ec26                	sd	s1,24(sp)
   12ca6:	e84a                	sd	s2,16(sp)
   12ca8:	f406                	sd	ra,40(sp)
   12caa:	e43e                	sd	a5,8(sp)
   12cac:	473d                	li	a4,15
   12cae:	842a                	mv	s0,a0
   12cb0:	84ae                	mv	s1,a1
   12cb2:	8932                	mv	s2,a2
   12cb4:	00f77963          	bgeu	a4,a5,12cc6 <_ZNSt7__cxx1112basic_stringIcSt11char_traitsIcESaIcEE12_M_constructIN9__gnu_cxx17__normal_iteratorIPcS4_EEEEvT_SA_St20forward_iterator_tag+0x2a>
   12cb8:	4601                	li	a2,0
   12cba:	002c                	addi	a1,sp,8
   12cbc:	acbfe0ef          	jal	11786 <_ZNSt7__cxx1112basic_stringIcSt11char_traitsIcESaIcEE9_M_createERmm>
   12cc0:	67a2                	ld	a5,8(sp)
   12cc2:	e008                	sd	a0,0(s0)
   12cc4:	e81c                	sd	a5,16(s0)
   12cc6:	6008                	ld	a0,0(s0)
   12cc8:	864a                	mv	a2,s2
   12cca:	85a6                	mv	a1,s1
   12ccc:	bf5fe0ef          	jal	118c0 <_ZNSt7__cxx1112basic_stringIcSt11char_traitsIcESaIcEE13_S_copy_charsEPcS5_S5_>
   12cd0:	6722                	ld	a4,8(sp)
   12cd2:	601c                	ld	a5,0(s0)
   12cd4:	e418                	sd	a4,8(s0)
   12cd6:	97ba                	add	a5,a5,a4
   12cd8:	00078023          	sb	zero,0(a5)
   12cdc:	70a2                	ld	ra,40(sp)
   12cde:	7402                	ld	s0,32(sp)
   12ce0:	64e2                	ld	s1,24(sp)
   12ce2:	6942                	ld	s2,16(sp)
   12ce4:	6145                	addi	sp,sp,48
   12ce6:	8082                	ret

0000000000012ce8 <_ZNSt7__cxx1112basic_stringIcSt11char_traitsIcESaIcEEC1IN9__gnu_cxx17__normal_iteratorIPcS4_EEvEET_SA_RKS3_>:
   12ce8:	01050793          	addi	a5,a0,16
   12cec:	e11c                	sd	a5,0(a0)
   12cee:	00053423          	sd	zero,8(a0)
   12cf2:	4681                	li	a3,0
   12cf4:	b765                	j	12c9c <_ZNSt7__cxx1112basic_stringIcSt11char_traitsIcESaIcEE12_M_constructIN9__gnu_cxx17__normal_iteratorIPcS4_EEEEvT_SA_St20forward_iterator_tag>

0000000000012cf6 <_ZNSt7__cxx1112basic_stringIcSt11char_traitsIcESaIcEE12_M_constructIN9__gnu_cxx17__normal_iteratorIPKcS4_EEEEvT_SB_St20forward_iterator_tag>:
   12cf6:	7179                	addi	sp,sp,-48
   12cf8:	40b607b3          	sub	a5,a2,a1
   12cfc:	f022                	sd	s0,32(sp)
   12cfe:	ec26                	sd	s1,24(sp)
   12d00:	e84a                	sd	s2,16(sp)
   12d02:	f406                	sd	ra,40(sp)
   12d04:	e43e                	sd	a5,8(sp)
   12d06:	473d                	li	a4,15
   12d08:	842a                	mv	s0,a0
   12d0a:	84ae                	mv	s1,a1
   12d0c:	8932                	mv	s2,a2
   12d0e:	00f77963          	bgeu	a4,a5,12d20 <_ZNSt7__cxx1112basic_stringIcSt11char_traitsIcESaIcEE12_M_constructIN9__gnu_cxx17__normal_iteratorIPKcS4_EEEEvT_SB_St20forward_iterator_tag+0x2a>
   12d12:	4601                	li	a2,0
   12d14:	002c                	addi	a1,sp,8
   12d16:	a71fe0ef          	jal	11786 <_ZNSt7__cxx1112basic_stringIcSt11char_traitsIcESaIcEE9_M_createERmm>
   12d1a:	67a2                	ld	a5,8(sp)
   12d1c:	e008                	sd	a0,0(s0)
   12d1e:	e81c                	sd	a5,16(s0)
   12d20:	6008                	ld	a0,0(s0)
   12d22:	864a                	mv	a2,s2
   12d24:	85a6                	mv	a1,s1
   12d26:	ba1fe0ef          	jal	118c6 <_ZNSt7__cxx1112basic_stringIcSt11char_traitsIcESaIcEE13_S_copy_charsEPcPKcS7_>
   12d2a:	6722                	ld	a4,8(sp)
   12d2c:	601c                	ld	a5,0(s0)
   12d2e:	e418                	sd	a4,8(s0)
   12d30:	97ba                	add	a5,a5,a4
   12d32:	00078023          	sb	zero,0(a5)
   12d36:	70a2                	ld	ra,40(sp)
   12d38:	7402                	ld	s0,32(sp)
   12d3a:	64e2                	ld	s1,24(sp)
   12d3c:	6942                	ld	s2,16(sp)
   12d3e:	6145                	addi	sp,sp,48
   12d40:	8082                	ret

0000000000012d42 <_ZNSt7__cxx1112basic_stringIcSt11char_traitsIcESaIcEEC1ERKS4_RKS3_>:
   12d42:	01050793          	addi	a5,a0,16
   12d46:	e11c                	sd	a5,0(a0)
   12d48:	619c                	ld	a5,0(a1)
   12d4a:	6590                	ld	a2,8(a1)
   12d4c:	4681                	li	a3,0
   12d4e:	85be                	mv	a1,a5
   12d50:	963e                	add	a2,a2,a5
   12d52:	b755                	j	12cf6 <_ZNSt7__cxx1112basic_stringIcSt11char_traitsIcESaIcEE12_M_constructIN9__gnu_cxx17__normal_iteratorIPKcS4_EEEEvT_SB_St20forward_iterator_tag>

0000000000012d54 <_ZNSt7__cxx1112basic_stringIcSt11char_traitsIcESaIcEE12_M_constructIPcEEvT_S7_St20forward_iterator_tag>:
   12d54:	7179                	addi	sp,sp,-48
   12d56:	40b607b3          	sub	a5,a2,a1
   12d5a:	f022                	sd	s0,32(sp)
   12d5c:	ec26                	sd	s1,24(sp)
   12d5e:	e84a                	sd	s2,16(sp)
   12d60:	f406                	sd	ra,40(sp)
   12d62:	e43e                	sd	a5,8(sp)
   12d64:	473d                	li	a4,15
   12d66:	842a                	mv	s0,a0
   12d68:	84ae                	mv	s1,a1
   12d6a:	8932                	mv	s2,a2
   12d6c:	00f77963          	bgeu	a4,a5,12d7e <_ZNSt7__cxx1112basic_stringIcSt11char_traitsIcESaIcEE12_M_constructIPcEEvT_S7_St20forward_iterator_tag+0x2a>
   12d70:	4601                	li	a2,0
   12d72:	002c                	addi	a1,sp,8
   12d74:	a13fe0ef          	jal	11786 <_ZNSt7__cxx1112basic_stringIcSt11char_traitsIcESaIcEE9_M_createERmm>
   12d78:	67a2                	ld	a5,8(sp)
   12d7a:	e008                	sd	a0,0(s0)
   12d7c:	e81c                	sd	a5,16(s0)
   12d7e:	6008                	ld	a0,0(s0)
   12d80:	864a                	mv	a2,s2
   12d82:	85a6                	mv	a1,s1
   12d84:	b3dfe0ef          	jal	118c0 <_ZNSt7__cxx1112basic_stringIcSt11char_traitsIcESaIcEE13_S_copy_charsEPcS5_S5_>
   12d88:	6722                	ld	a4,8(sp)
   12d8a:	601c                	ld	a5,0(s0)
   12d8c:	e418                	sd	a4,8(s0)
   12d8e:	97ba                	add	a5,a5,a4
   12d90:	00078023          	sb	zero,0(a5)
   12d94:	70a2                	ld	ra,40(sp)
   12d96:	7402                	ld	s0,32(sp)
   12d98:	64e2                	ld	s1,24(sp)
   12d9a:	6942                	ld	s2,16(sp)
   12d9c:	6145                	addi	sp,sp,48
   12d9e:	8082                	ret

0000000000012da0 <_ZNSt7__cxx1112basic_stringIcSt11char_traitsIcESaIcEEC1IPcvEET_S7_RKS3_>:
   12da0:	01050793          	addi	a5,a0,16
   12da4:	e11c                	sd	a5,0(a0)
   12da6:	00053423          	sd	zero,8(a0)
   12daa:	4681                	li	a3,0
   12dac:	b765                	j	12d54 <_ZNSt7__cxx1112basic_stringIcSt11char_traitsIcESaIcEE12_M_constructIPcEEvT_S7_St20forward_iterator_tag>

0000000000012dae <_ZNSt7__cxx1112basic_stringIcSt11char_traitsIcESaIcEEC1ERKS4_>:
   12dae:	01050793          	addi	a5,a0,16
   12db2:	e11c                	sd	a5,0(a0)
   12db4:	619c                	ld	a5,0(a1)
   12db6:	6590                	ld	a2,8(a1)
   12db8:	4681                	li	a3,0
   12dba:	85be                	mv	a1,a5
   12dbc:	963e                	add	a2,a2,a5
   12dbe:	bf59                	j	12d54 <_ZNSt7__cxx1112basic_stringIcSt11char_traitsIcESaIcEE12_M_constructIPcEEvT_S7_St20forward_iterator_tag>

0000000000012dc0 <_ZNSt7__cxx1112basic_stringIcSt11char_traitsIcESaIcEE12_M_constructIPKcEEvT_S8_St20forward_iterator_tag>:
   12dc0:	7179                	addi	sp,sp,-48
   12dc2:	40b607b3          	sub	a5,a2,a1
   12dc6:	f022                	sd	s0,32(sp)
   12dc8:	ec26                	sd	s1,24(sp)
   12dca:	e84a                	sd	s2,16(sp)
   12dcc:	f406                	sd	ra,40(sp)
   12dce:	e43e                	sd	a5,8(sp)
   12dd0:	473d                	li	a4,15
   12dd2:	842a                	mv	s0,a0
   12dd4:	84ae                	mv	s1,a1
   12dd6:	8932                	mv	s2,a2
   12dd8:	00f77963          	bgeu	a4,a5,12dea <_ZNSt7__cxx1112basic_stringIcSt11char_traitsIcESaIcEE12_M_constructIPKcEEvT_S8_St20forward_iterator_tag+0x2a>
   12ddc:	4601                	li	a2,0
   12dde:	002c                	addi	a1,sp,8
   12de0:	9a7fe0ef          	jal	11786 <_ZNSt7__cxx1112basic_stringIcSt11char_traitsIcESaIcEE9_M_createERmm>
   12de4:	67a2                	ld	a5,8(sp)
   12de6:	e008                	sd	a0,0(s0)
   12de8:	e81c                	sd	a5,16(s0)
   12dea:	6008                	ld	a0,0(s0)
   12dec:	864a                	mv	a2,s2
   12dee:	85a6                	mv	a1,s1
   12df0:	ad7fe0ef          	jal	118c6 <_ZNSt7__cxx1112basic_stringIcSt11char_traitsIcESaIcEE13_S_copy_charsEPcPKcS7_>
   12df4:	6722                	ld	a4,8(sp)
   12df6:	601c                	ld	a5,0(s0)
   12df8:	e418                	sd	a4,8(s0)
   12dfa:	97ba                	add	a5,a5,a4
   12dfc:	00078023          	sb	zero,0(a5)
   12e00:	70a2                	ld	ra,40(sp)
   12e02:	7402                	ld	s0,32(sp)
   12e04:	64e2                	ld	s1,24(sp)
   12e06:	6942                	ld	s2,16(sp)
   12e08:	6145                	addi	sp,sp,48
   12e0a:	8082                	ret

0000000000012e0c <_ZNSt7__cxx1112basic_stringIcSt11char_traitsIcESaIcEEC1EPKcmRKS3_>:
   12e0c:	01050793          	addi	a5,a0,16
   12e10:	e11c                	sd	a5,0(a0)
   12e12:	e991                	bnez	a1,12e26 <_ZNSt7__cxx1112basic_stringIcSt11char_traitsIcESaIcEEC1EPKcmRKS3_+0x1a>
   12e14:	ca09                	beqz	a2,12e26 <_ZNSt7__cxx1112basic_stringIcSt11char_traitsIcESaIcEEC1EPKcmRKS3_+0x1a>
   12e16:	0002a537          	lui	a0,0x2a
   12e1a:	1141                	addi	sp,sp,-16
   12e1c:	72050513          	addi	a0,a0,1824 # 2a720 <__clzdi2+0x450>
